---
triple:          'arm64-apple-darwin'
binary-path:     output
relocations:
  - { offsetInCU: 0x3F, offset: 0x3F, size: 0x8, addend: 0x0, symName: _cout, symObjAddr: 0x75760, symBinAddr: 0x10001C008, symSize: 0x0 }
  - { offsetInCU: 0xCC52, offset: 0xCC52, size: 0x8, addend: 0x0, symName: __ZNSt3__124__put_character_sequenceB8ue170006IcNS_11char_traitsIcEEEERNS_13basic_ostreamIT_T0_EES7_PKS4_m, symObjAddr: 0x2FC0, symBinAddr: 0x100005E24, symSize: 0x1EC }
  - { offsetInCU: 0x119F8, offset: 0x119F8, size: 0x8, addend: 0x0, symName: __ZNSt3__1lsB8ue170006INS_11char_traitsIcEEEERNS_13basic_ostreamIcT_EES6_PKc, symObjAddr: 0xF14, symBinAddr: 0x100003D78, symSize: 0x48 }
  - { offsetInCU: 0x11A3E, offset: 0x11A3E, size: 0x8, addend: 0x0, symName: __ZNSt3__14endlB8ue170006IcNS_11char_traitsIcEEEERNS_13basic_ostreamIT_T0_EES7_, symObjAddr: 0xF88, symBinAddr: 0x100003DEC, symSize: 0x58 }
  - { offsetInCU: 0x11A7E, offset: 0x11A7E, size: 0x8, addend: 0x0, symName: __ZNSt3__1neB8ue170006IPPN6seneca11WorkstationEEEbRKNS_11__wrap_iterIT_EES9_, symObjAddr: 0x1380, symBinAddr: 0x1000041E4, symSize: 0x34 }
  - { offsetInCU: 0x11AC1, offset: 0x11AC1, size: 0x8, addend: 0x0, symName: __ZNSt3__1lsB8ue170006IcNS_11char_traitsIcEENS_9allocatorIcEEEERNS_13basic_ostreamIT_T0_EES9_RKNS_12basic_stringIS6_S7_T1_EE, symObjAddr: 0x13EC, symBinAddr: 0x100004250, symSize: 0x4C }
  - { offsetInCU: 0x11B19, offset: 0x11B19, size: 0x8, addend: 0x0, symName: __ZNSt3__1neB8ue170006IPN6seneca13CustomerOrderEEEbRKNS_11__wrap_iterIT_EES8_, symObjAddr: 0x1788, symBinAddr: 0x1000045EC, symSize: 0x34 }
  - { offsetInCU: 0x11B5C, offset: 0x11B5C, size: 0x8, addend: 0x0, symName: __ZNSt3__1lsB8ue170006INS_11char_traitsIcEEEERNS_13basic_ostreamIcT_EES6_c, symObjAddr: 0x1900, symBinAddr: 0x100004764, symSize: 0x34 }
  - { offsetInCU: 0x11BA2, offset: 0x11BA2, size: 0x8, addend: 0x0, symName: __ZNSt3__1neB8ue170006ERKNS_16__deque_iteratorIN6seneca13CustomerOrderEPS2_RS2_PS3_lLl64EEES8_, symObjAddr: 0x1AB4, symBinAddr: 0x100004918, symSize: 0x34 }
  - { offsetInCU: 0x11BDF, offset: 0x11BDF, size: 0x8, addend: 0x0, symName: __ZNSt3__1eqB8ue170006IPPN6seneca11WorkstationEEEbRKNS_11__wrap_iterIT_EES9_, symObjAddr: 0x1BF4, symBinAddr: 0x100004A58, symSize: 0x48 }
  - { offsetInCU: 0x11C22, offset: 0x11C22, size: 0x8, addend: 0x0, symName: __ZNSt3__1eqB8ue170006IPN6seneca13CustomerOrderEEEbRKNS_11__wrap_iterIT_EES8_, symObjAddr: 0x1C54, symBinAddr: 0x100004AB8, symSize: 0x48 }
  - { offsetInCU: 0x11C65, offset: 0x11C65, size: 0x8, addend: 0x0, symName: __ZNSt3__112__to_addressB8ue170006IN6seneca13CustomerOrderEEEPT_S4_, symObjAddr: 0x296C, symBinAddr: 0x1000057D0, symSize: 0x14 }
  - { offsetInCU: 0x11C9A, offset: 0x11C9A, size: 0x8, addend: 0x0, symName: __ZNSt3__119__libcpp_deallocateB8ue170006EPvmm, symObjAddr: 0x2B38, symBinAddr: 0x10000599C, symSize: 0x60 }
  - { offsetInCU: 0x11CFF, offset: 0x11CFF, size: 0x8, addend: 0x0, symName: __ZNSt3__124__is_overaligned_for_newB8ue170006Em, symObjAddr: 0x2B98, symBinAddr: 0x1000059FC, symSize: 0x20 }
  - { offsetInCU: 0x11D2D, offset: 0x11D2D, size: 0x8, addend: 0x0, symName: __ZNSt3__127__do_deallocate_handle_sizeB8ue170006IJSt11align_val_tEEEvPvmDpT_, symObjAddr: 0x2BB8, symBinAddr: 0x100005A1C, symSize: 0x30 }
  - { offsetInCU: 0x11D80, offset: 0x11D80, size: 0x8, addend: 0x0, symName: __ZNSt3__127__do_deallocate_handle_sizeB8ue170006IJEEEvPvmDpT_, symObjAddr: 0x2BE8, symBinAddr: 0x100005A4C, symSize: 0x28 }
  - { offsetInCU: 0x11DBE, offset: 0x11DBE, size: 0x8, addend: 0x0, symName: __ZNSt3__124__libcpp_operator_deleteB8ue170006IJPvSt11align_val_tEEEvDpT_, symObjAddr: 0x2C10, symBinAddr: 0x100005A74, symSize: 0x2C }
  - { offsetInCU: 0x11E07, offset: 0x11E07, size: 0x8, addend: 0x0, symName: __ZNSt3__124__libcpp_operator_deleteB8ue170006IJPvEEEvDpT_, symObjAddr: 0x2C3C, symBinAddr: 0x100005AA0, symSize: 0x24 }
  - { offsetInCU: 0x11E3C, offset: 0x11E3C, size: 0x8, addend: 0x0, symName: __ZNSt3__112__to_addressB8ue170006IPN6seneca13CustomerOrderEEEPT_S5_, symObjAddr: 0x2EC0, symBinAddr: 0x100005D24, symSize: 0x14 }
  - { offsetInCU: 0x11E71, offset: 0x11E71, size: 0x8, addend: 0x0, symName: __ZNSt3__116__pad_and_outputB8ue170006IcNS_11char_traitsIcEEEENS_19ostreambuf_iteratorIT_T0_EES6_PKS4_S8_S8_RNS_8ios_baseES4_, symObjAddr: 0x31FC, symBinAddr: 0x100006060, symSize: 0x240 }
  - { offsetInCU: 0x11F40, offset: 0x11F40, size: 0x8, addend: 0x0, symName: __ZNSt3__112__to_addressB8ue170006IcEEPT_S2_, symObjAddr: 0x3764, symBinAddr: 0x1000065C8, symSize: 0x14 }
  - { offsetInCU: 0x11FA8, offset: 0x11FA8, size: 0x8, addend: 0x0, symName: __ZNSt3__19use_facetB8ue170006INS_5ctypeIcEEEERKT_RKNS_6localeE, symObjAddr: 0x3A1C, symBinAddr: 0x100006880, symSize: 0x2C }
  - { offsetInCU: 0x12475, offset: 0x12475, size: 0x8, addend: 0x0, symName: __ZNSt3__118__constexpr_strlenB8ue170006EPKc, symObjAddr: 0x3AB4, symBinAddr: 0x100006918, symSize: 0x24 }
  - { offsetInCU: 0x124A1, offset: 0x124A1, size: 0x8, addend: 0x0, symName: __ZNSt3__112__to_addressB8ue170006IPN6seneca11WorkstationEEEPT_S5_, symObjAddr: 0x3F84, symBinAddr: 0x100006DE8, symSize: 0x14 }
  - { offsetInCU: 0x132C8, offset: 0x132C8, size: 0x8, addend: 0x0, symName: __ZNSt3__1plB8ue170006IcNS_11char_traitsIcEENS_9allocatorIcEEEENS_12basic_stringIT_T0_T1_EEOS9_PKS6_, symObjAddr: 0x47C8, symBinAddr: 0x10000762C, symSize: 0x40 }
  - { offsetInCU: 0x13320, offset: 0x13320, size: 0x8, addend: 0x0, symName: __ZNSt3__17getlineB8ue170006IcNS_11char_traitsIcEENS_9allocatorIcEEEERNS_13basic_istreamIT_T0_EES9_RNS_12basic_stringIS6_S7_T1_EE, symObjAddr: 0x485C, symBinAddr: 0x1000076C0, symSize: 0x5C }
  - { offsetInCU: 0x13383, offset: 0x13383, size: 0x8, addend: 0x0, symName: __ZNSt3__17getlineB8ue170006IcNS_11char_traitsIcEENS_9allocatorIcEEEERNS_13basic_istreamIT_T0_EES9_RNS_12basic_stringIS6_S7_T1_EES6_, symObjAddr: 0x4C7C, symBinAddr: 0x100007AE0, symSize: 0x238 }
  - { offsetInCU: 0x1362D, offset: 0x1362D, size: 0x8, addend: 0x0, symName: __ZNSt3__13maxB8ue170006ImEERKT_S3_S3_, symObjAddr: 0x5934, symBinAddr: 0x100008798, symSize: 0x2C }
  - { offsetInCU: 0x13670, offset: 0x13670, size: 0x8, addend: 0x0, symName: __ZNSt3__13minB8ue170006ImEERKT_S3_S3_, symObjAddr: 0x5960, symBinAddr: 0x1000087C4, symSize: 0x2C }
  - { offsetInCU: 0x1389D, offset: 0x1389D, size: 0x8, addend: 0x0, symName: __ZNSt3__13minB8ue170006ImNS_6__lessIvvEEEERKT_S5_S5_T0_, symObjAddr: 0x59EC, symBinAddr: 0x100008850, symSize: 0x54 }
  - { offsetInCU: 0x1393C, offset: 0x1393C, size: 0x8, addend: 0x0, symName: __ZNSt3__120__throw_length_errorB8ue170006EPKc, symObjAddr: 0x5AC8, symBinAddr: 0x10000892C, symSize: 0x64 }
  - { offsetInCU: 0x13966, offset: 0x13966, size: 0x8, addend: 0x0, symName: __ZNSt3__13maxB8ue170006ImNS_6__lessIvvEEEERKT_S5_S5_T0_, symObjAddr: 0x5BAC, symBinAddr: 0x100008A10, symSize: 0x54 }
  - { offsetInCU: 0x139C0, offset: 0x139C0, size: 0x8, addend: 0x0, symName: __ZNSt3__119__allocate_at_leastB8ue170006INS_9allocatorIPN6seneca11WorkstationEEEEENS_19__allocation_resultINS_16allocator_traitsIT_E7pointerEEERS8_m, symObjAddr: 0x5D10, symBinAddr: 0x100008B74, symSize: 0x40 }
  - { offsetInCU: 0x13A03, offset: 0x13A03, size: 0x8, addend: 0x0, symName: __ZNSt3__117__libcpp_allocateB8ue170006Emm, symObjAddr: 0x5E94, symBinAddr: 0x100008CF8, symSize: 0x60 }
  - { offsetInCU: 0x13A5D, offset: 0x13A5D, size: 0x8, addend: 0x0, symName: __ZNSt3__121__libcpp_operator_newB8ue170006IJmSt11align_val_tEEEPvDpT_, symObjAddr: 0x5EF4, symBinAddr: 0x100008D58, symSize: 0x2C }
  - { offsetInCU: 0x13AAA, offset: 0x13AAA, size: 0x8, addend: 0x0, symName: __ZNSt3__121__libcpp_operator_newB8ue170006IJmEEEPvDpT_, symObjAddr: 0x5F20, symBinAddr: 0x100008D84, symSize: 0x24 }
  - { offsetInCU: 0x13AE3, offset: 0x13AE3, size: 0x8, addend: 0x0, symName: __ZNSt3__142__uninitialized_allocator_move_if_noexceptB8ue170006INS_9allocatorIPN6seneca11WorkstationEEENS_16reverse_iteratorIPS4_EES8_S4_vEET1_RT_T0_SC_S9_, symObjAddr: 0x5FA8, symBinAddr: 0x100008E0C, symSize: 0x78 }
  - { offsetInCU: 0x13B60, offset: 0x13B60, size: 0x8, addend: 0x0, symName: __ZNSt3__14swapB8ue170006IPPN6seneca11WorkstationEEENS_9enable_ifIXaasr21is_move_constructibleIT_EE5valuesr18is_move_assignableIS6_EE5valueEvE4typeERS6_S9_, symObjAddr: 0x606C, symBinAddr: 0x100008ED0, symSize: 0x3C }
  - { offsetInCU: 0x13BB1, offset: 0x13BB1, size: 0x8, addend: 0x0, symName: __ZNSt3__14moveB8ue170006INS_16reverse_iteratorIPPN6seneca11WorkstationEEES6_EET0_T_S8_S7_, symObjAddr: 0x6154, symBinAddr: 0x100008FB8, symSize: 0x78 }
  - { offsetInCU: 0x13C0B, offset: 0x13C0B, size: 0x8, addend: 0x0, symName: __ZNSt3__16__moveB8ue170006INS_17_ClassicAlgPolicyENS_16reverse_iteratorIPPN6seneca11WorkstationEEES7_S7_EENS_4pairIT0_T2_EES9_T1_SA_, symObjAddr: 0x61CC, symBinAddr: 0x100009030, symSize: 0x64 }
  - { offsetInCU: 0x13C77, offset: 0x13C77, size: 0x8, addend: 0x0, symName: __ZNSt3__123__dispatch_copy_or_moveB8ue170006INS_17_ClassicAlgPolicyENS_11__move_loopIS1_EENS_14__move_trivialENS_16reverse_iteratorIPPN6seneca11WorkstationEEESA_SA_EENS_4pairIT2_T4_EESC_T3_SD_, symObjAddr: 0x6230, symBinAddr: 0x100009094, symSize: 0x64 }
  - { offsetInCU: 0x13CF5, offset: 0x13CF5, size: 0x8, addend: 0x0, symName: __ZNSt3__121__unwrap_and_dispatchB8ue170006INS_10__overloadINS_11__move_loopINS_17_ClassicAlgPolicyEEENS_14__move_trivialEEENS_16reverse_iteratorIPPN6seneca11WorkstationEEESC_SC_Li0EEENS_4pairIT0_T2_EESE_T1_SF_, symObjAddr: 0x6294, symBinAddr: 0x1000090F8, symSize: 0x12C }
  - { offsetInCU: 0x13D85, offset: 0x13D85, size: 0x8, addend: 0x0, symName: __ZNSt3__114__unwrap_rangeB8ue170006INS_16reverse_iteratorIPPN6seneca11WorkstationEEES6_EENS_4pairIT0_S8_EET_SA_, symObjAddr: 0x63C0, symBinAddr: 0x100009224, symSize: 0x84 }
  - { offsetInCU: 0x13F00, offset: 0x13F00, size: 0x8, addend: 0x0, symName: __ZNSt3__113__unwrap_iterB8ue170006INS_16reverse_iteratorIPPN6seneca11WorkstationEEENS_18__unwrap_iter_implIS6_Lb0EEELi0EEEDTclsrT0_8__unwrapclsr3stdE7declvalIT_EEEESA_, symObjAddr: 0x64E4, symBinAddr: 0x100009348, symSize: 0x44 }
  - { offsetInCU: 0x13F44, offset: 0x13F44, size: 0x8, addend: 0x0, symName: __ZNSt3__19make_pairB8ue170006INS_16reverse_iteratorIPPN6seneca11WorkstationEEES6_EENS_4pairINS_18__unwrap_ref_decayIT_E4typeENS8_IT0_E4typeEEEOS9_OSC_, symObjAddr: 0x6528, symBinAddr: 0x10000938C, symSize: 0x38 }
  - { offsetInCU: 0x13F93, offset: 0x13F93, size: 0x8, addend: 0x0, symName: __ZNSt3__114__rewrap_rangeB8ue170006INS_16reverse_iteratorIPPN6seneca11WorkstationEEES6_EET_S7_T0_, symObjAddr: 0x6560, symBinAddr: 0x1000093C4, symSize: 0x5C }
  - { offsetInCU: 0x13FDF, offset: 0x13FDF, size: 0x8, addend: 0x0, symName: __ZNSt3__113__rewrap_iterB8ue170006INS_16reverse_iteratorIPPN6seneca11WorkstationEEES6_NS_18__unwrap_iter_implIS6_Lb0EEEEET_S9_T0_, symObjAddr: 0x65BC, symBinAddr: 0x100009420, symSize: 0x74 }
  - { offsetInCU: 0x14034, offset: 0x14034, size: 0x8, addend: 0x0, symName: __ZNSt3__1neB8ue170006IPPN6seneca11WorkstationES4_EEbRKNS_16reverse_iteratorIT_EERKNS5_IT0_EE, symObjAddr: 0x6630, symBinAddr: 0x100009494, symSize: 0x48 }
  - { offsetInCU: 0x14132, offset: 0x14132, size: 0x8, addend: 0x0, symName: __ZNSt3__112__to_addressB8ue170006IKcEEPT_S3_, symObjAddr: 0x6DE4, symBinAddr: 0x100009C48, symSize: 0x14 }
  - { offsetInCU: 0x1419A, offset: 0x1419A, size: 0x8, addend: 0x0, symName: __ZNSt3__119__allocate_at_leastB8ue170006INS_9allocatorIN6seneca13CustomerOrderEEEEENS_19__allocation_resultINS_16allocator_traitsIT_E7pointerEEERS7_m, symObjAddr: 0x766C, symBinAddr: 0x10000A4D0, symSize: 0x40 }
  - { offsetInCU: 0x141DD, offset: 0x141DD, size: 0x8, addend: 0x0, symName: __ZNSt3__142__uninitialized_allocator_move_if_noexceptB8ue170006INS_9allocatorIN6seneca13CustomerOrderEEENS_16reverse_iteratorIPS3_EES7_S7_EET2_RT_T0_T1_S8_, symObjAddr: 0x7820, symBinAddr: 0x10000A684, symSize: 0x12C }
  - { offsetInCU: 0x1427D, offset: 0x1427D, size: 0x8, addend: 0x0, symName: __ZNSt3__14swapB8ue170006IPN6seneca13CustomerOrderEEENS_9enable_ifIXaasr21is_move_constructibleIT_EE5valuesr18is_move_assignableIS5_EE5valueEvE4typeERS5_S8_, symObjAddr: 0x7998, symBinAddr: 0x10000A7FC, symSize: 0x3C }
  - { offsetInCU: 0x142CE, offset: 0x142CE, size: 0x8, addend: 0x0, symName: __ZNSt3__122__make_exception_guardB8ue170006INS_29_AllocatorDestroyRangeReverseINS_9allocatorIN6seneca13CustomerOrderEEENS_16reverse_iteratorIPS4_EEEEEENS_28__exception_guard_exceptionsIT_EESB_, symObjAddr: 0x7A80, symBinAddr: 0x10000A8E4, symSize: 0x4C }
  - { offsetInCU: 0x14304, offset: 0x14304, size: 0x8, addend: 0x0, symName: __ZNSt3__1neB8ue170006IPN6seneca13CustomerOrderES3_EEbRKNS_16reverse_iteratorIT_EERKNS4_IT0_EE, symObjAddr: 0x7B10, symBinAddr: 0x10000A974, symSize: 0x48 }
  - { offsetInCU: 0x14350, offset: 0x14350, size: 0x8, addend: 0x0, symName: __ZNSt3__112__to_addressB8ue170006INS_16reverse_iteratorIPN6seneca13CustomerOrderEEEvEEu7__decayIDTclsr19__to_address_helperIT_EE6__callclsr3stdE7declvalIRKS6_EEEEES8_, symObjAddr: 0x7B58, symBinAddr: 0x10000A9BC, symSize: 0x24 }
  - { offsetInCU: 0x143AF, offset: 0x143AF, size: 0x8, addend: 0x0, symName: __ZNSt3__119__allocator_destroyB8ue170006INS_9allocatorIN6seneca13CustomerOrderEEENS_16reverse_iteratorINS5_IPS3_EEEES8_EEvRT_T0_T1_, symObjAddr: 0x7E08, symBinAddr: 0x10000AC6C, symSize: 0x70 }
  - { offsetInCU: 0x14414, offset: 0x14414, size: 0x8, addend: 0x0, symName: __ZNSt3__1neB8ue170006INS_16reverse_iteratorIPN6seneca13CustomerOrderEEES5_EEbRKNS1_IT_EERKNS1_IT0_EE, symObjAddr: 0x7EB4, symBinAddr: 0x10000AD18, symSize: 0x60 }
  - { offsetInCU: 0x14460, offset: 0x14460, size: 0x8, addend: 0x0, symName: __ZNSt3__112__to_addressB8ue170006INS_16reverse_iteratorINS1_IPN6seneca13CustomerOrderEEEEEvEEu7__decayIDTclsr19__to_address_helperIT_EE6__callclsr3stdE7declvalIRKS7_EEEEES9_, symObjAddr: 0x7F14, symBinAddr: 0x10000AD78, symSize: 0x24 }
  - { offsetInCU: 0x14864, offset: 0x14864, size: 0x8, addend: 0x0, symName: __ZNSt3__14swapB8ue170006IPPN6seneca13CustomerOrderEEENS_9enable_ifIXaasr21is_move_constructibleIT_EE5valuesr18is_move_assignableIS6_EE5valueEvE4typeERS6_S9_, symObjAddr: 0x9500, symBinAddr: 0x10000C364, symSize: 0x3C }
  - { offsetInCU: 0x148B5, offset: 0x148B5, size: 0x8, addend: 0x0, symName: __ZNSt3__14moveB8ue170006IPPN6seneca13CustomerOrderES4_EET0_T_S6_S5_, symObjAddr: 0x95E4, symBinAddr: 0x10000C448, symSize: 0x40 }
  - { offsetInCU: 0x1492B, offset: 0x1492B, size: 0x8, addend: 0x0, symName: __ZNSt3__16__moveB8ue170006INS_17_ClassicAlgPolicyEPPN6seneca13CustomerOrderES5_S5_EENS_4pairIT0_T2_EES7_T1_S8_, symObjAddr: 0x96EC, symBinAddr: 0x10000C550, symSize: 0x44 }
  - { offsetInCU: 0x14997, offset: 0x14997, size: 0x8, addend: 0x0, symName: __ZNSt3__123__dispatch_copy_or_moveB8ue170006INS_17_ClassicAlgPolicyENS_11__move_loopIS1_EENS_14__move_trivialEPPN6seneca13CustomerOrderES8_S8_EENS_4pairIT2_T4_EESA_T3_SB_, symObjAddr: 0x9730, symBinAddr: 0x10000C594, symSize: 0x44 }
  - { offsetInCU: 0x14A15, offset: 0x14A15, size: 0x8, addend: 0x0, symName: __ZNSt3__121__unwrap_and_dispatchB8ue170006INS_10__overloadINS_11__move_loopINS_17_ClassicAlgPolicyEEENS_14__move_trivialEEEPPN6seneca13CustomerOrderESA_SA_Li0EEENS_4pairIT0_T2_EESC_T1_SD_, symObjAddr: 0x9774, symBinAddr: 0x10000C5D8, symSize: 0xB4 }
  - { offsetInCU: 0x14AA3, offset: 0x14AA3, size: 0x8, addend: 0x0, symName: __ZNSt3__114__unwrap_rangeB8ue170006IPPN6seneca13CustomerOrderES4_EENS_4pairIT0_S6_EET_S8_, symObjAddr: 0x9828, symBinAddr: 0x10000C68C, symSize: 0x60 }
  - { offsetInCU: 0x14C67, offset: 0x14C67, size: 0x8, addend: 0x0, symName: __ZNSt3__113__unwrap_iterB8ue170006IPPN6seneca13CustomerOrderENS_18__unwrap_iter_implIS4_Lb1EEELi0EEEDTclsrT0_8__unwrapclsr3stdE7declvalIT_EEEES8_, symObjAddr: 0x98D0, symBinAddr: 0x10000C734, symSize: 0x24 }
  - { offsetInCU: 0x14CAB, offset: 0x14CAB, size: 0x8, addend: 0x0, symName: __ZNSt3__19make_pairB8ue170006IPPN6seneca13CustomerOrderES4_EENS_4pairINS_18__unwrap_ref_decayIT_E4typeENS6_IT0_E4typeEEEOS7_OSA_, symObjAddr: 0x98F4, symBinAddr: 0x10000C758, symSize: 0x38 }
  - { offsetInCU: 0x14CFA, offset: 0x14CFA, size: 0x8, addend: 0x0, symName: __ZNSt3__114__rewrap_rangeB8ue170006IPPN6seneca13CustomerOrderES4_EET_S5_T0_, symObjAddr: 0x992C, symBinAddr: 0x10000C790, symSize: 0x2C }
  - { offsetInCU: 0x14D46, offset: 0x14D46, size: 0x8, addend: 0x0, symName: __ZNSt3__113__rewrap_iterB8ue170006IPPN6seneca13CustomerOrderES4_NS_18__unwrap_iter_implIS4_Lb1EEEEET_S7_T0_, symObjAddr: 0x9958, symBinAddr: 0x10000C7BC, symSize: 0x3C }
  - { offsetInCU: 0x14D9B, offset: 0x14D9B, size: 0x8, addend: 0x0, symName: __ZNSt3__119__copy_trivial_implB8ue170006IPN6seneca13CustomerOrderES3_EENS_4pairIPT_PT0_EES6_S6_S8_, symObjAddr: 0x9994, symBinAddr: 0x10000C7F8, symSize: 0x80 }
  - { offsetInCU: 0x14E03, offset: 0x14E03, size: 0x8, addend: 0x0, symName: __ZNSt3__119__constexpr_memmoveB8ue170006IPN6seneca13CustomerOrderES3_Li0EEEPT_S5_PT0_NS_15__element_countE, symObjAddr: 0x9A14, symBinAddr: 0x10000C878, symSize: 0x64 }
  - { offsetInCU: 0x14E71, offset: 0x14E71, size: 0x8, addend: 0x0, symName: __ZNSt3__19make_pairB8ue170006IRPPN6seneca13CustomerOrderES4_EENS_4pairINS_18__unwrap_ref_decayIT_E4typeENS7_IT0_E4typeEEEOS8_OSB_, symObjAddr: 0x9A78, symBinAddr: 0x10000C8DC, symSize: 0x38 }
  - { offsetInCU: 0x14F13, offset: 0x14F13, size: 0x8, addend: 0x0, symName: __ZNSt3__18distanceB8ue170006INS_13move_iteratorIPPN6seneca13CustomerOrderEEEEENS_15iterator_traitsIT_E15difference_typeES8_S8_, symObjAddr: 0x9CE0, symBinAddr: 0x10000CB44, symSize: 0x3C }
  - { offsetInCU: 0x14F56, offset: 0x14F56, size: 0x8, addend: 0x0, symName: __ZNSt3__110__distanceB8ue170006INS_13move_iteratorIPPN6seneca13CustomerOrderEEEEENS_15iterator_traitsIT_E15difference_typeES8_S8_NS_26random_access_iterator_tagE, symObjAddr: 0x9EE4, symBinAddr: 0x10000CD48, symSize: 0x30 }
  - { offsetInCU: 0x14FA3, offset: 0x14FA3, size: 0x8, addend: 0x0, symName: __ZNSt3__1miB8ue170006IPPN6seneca13CustomerOrderES4_EEDTmicldtfp_4baseEcldtfp0_4baseEERKNS_13move_iteratorIT_EERKNS6_IT0_EE, symObjAddr: 0x9F14, symBinAddr: 0x10000CD78, symSize: 0x48 }
  - { offsetInCU: 0x14FF2, offset: 0x14FF2, size: 0x8, addend: 0x0, symName: __ZNSt3__113move_backwardB8ue170006IPPN6seneca13CustomerOrderES4_EET0_T_S6_S5_, symObjAddr: 0x9FBC, symBinAddr: 0x10000CE20, symSize: 0x40 }
  - { offsetInCU: 0x1504C, offset: 0x1504C, size: 0x8, addend: 0x0, symName: __ZNSt3__115__move_backwardB8ue170006INS_17_ClassicAlgPolicyEPPN6seneca13CustomerOrderES5_S5_EENS_4pairIT0_T2_EES7_T1_S8_, symObjAddr: 0x9FFC, symBinAddr: 0x10000CE60, symSize: 0x44 }
  - { offsetInCU: 0x150B8, offset: 0x150B8, size: 0x8, addend: 0x0, symName: __ZNSt3__123__dispatch_copy_or_moveB8ue170006INS_17_ClassicAlgPolicyENS_20__move_backward_loopIS1_EENS_23__move_backward_trivialEPPN6seneca13CustomerOrderES8_S8_EENS_4pairIT2_T4_EESA_T3_SB_, symObjAddr: 0xA040, symBinAddr: 0x10000CEA4, symSize: 0x44 }
  - { offsetInCU: 0x15136, offset: 0x15136, size: 0x8, addend: 0x0, symName: __ZNSt3__121__unwrap_and_dispatchB8ue170006INS_10__overloadINS_20__move_backward_loopINS_17_ClassicAlgPolicyEEENS_23__move_backward_trivialEEEPPN6seneca13CustomerOrderESA_SA_Li0EEENS_4pairIT0_T2_EESC_T1_SD_, symObjAddr: 0xA084, symBinAddr: 0x10000CEE8, symSize: 0xB4 }
  - { offsetInCU: 0x1520A, offset: 0x1520A, size: 0x8, addend: 0x0, symName: __ZNSt3__128__copy_backward_trivial_implB8ue170006IPN6seneca13CustomerOrderES3_EENS_4pairIPT_PT0_EES6_S6_S8_, symObjAddr: 0xA180, symBinAddr: 0x10000CFE4, symSize: 0x90 }
  - { offsetInCU: 0x15272, offset: 0x15272, size: 0x8, addend: 0x0, symName: __ZNSt3__19make_pairB8ue170006IRPPN6seneca13CustomerOrderES5_EENS_4pairINS_18__unwrap_ref_decayIT_E4typeENS7_IT0_E4typeEEEOS8_OSB_, symObjAddr: 0xA210, symBinAddr: 0x10000D074, symSize: 0x38 }
  - { offsetInCU: 0x152C1, offset: 0x152C1, size: 0x8, addend: 0x0, symName: __ZNSt3__119__allocate_at_leastB8ue170006INS_9allocatorIPN6seneca13CustomerOrderEEEEENS_19__allocation_resultINS_16allocator_traitsIT_E7pointerEEERS8_m, symObjAddr: 0xA3C8, symBinAddr: 0x10000D22C, symSize: 0x40 }
  - { offsetInCU: 0x15304, offset: 0x15304, size: 0x8, addend: 0x0, symName: __ZNSt3__1eqB8ue170006ERKNS_16__deque_iteratorIN6seneca13CustomerOrderEPS2_RS2_PS3_lLl64EEES8_, symObjAddr: 0xAAD0, symBinAddr: 0x10000D934, symSize: 0x30 }
  - { offsetInCU: 0x15850, offset: 0x15850, size: 0x8, addend: 0x0, symName: __ZSt28__throw_bad_array_new_lengthB8ue170006v, symObjAddr: 0x5E60, symBinAddr: 0x100008CC4, symSize: 0x34 }
  - { offsetInCU: 0x16A3A, offset: 0x16A3A, size: 0x8, addend: 0x0, symName: __ZNSt3__16vectorIPN6seneca11WorkstationENS_9allocatorIS3_EEE26__swap_out_circular_bufferERNS_14__split_bufferIS3_RS5_EE, symObjAddr: 0x577C, symBinAddr: 0x1000085E0, symSize: 0x110 }
  - { offsetInCU: 0x16A91, offset: 0x16A91, size: 0x8, addend: 0x0, symName: __ZNSt3__16vectorIN6seneca13CustomerOrderENS_9allocatorIS2_EEE26__swap_out_circular_bufferERNS_14__split_bufferIS2_RS4_EE, symObjAddr: 0x730C, symBinAddr: 0x10000A170, symSize: 0x110 }
  - { offsetInCU: 0x18EC5, offset: 0x18EC5, size: 0x8, addend: 0x0, symName: _main, symObjAddr: 0x0, symBinAddr: 0x100002E64, symSize: 0xF14 }
  - { offsetInCU: 0x191AC, offset: 0x191AC, size: 0x8, addend: 0x0, symName: __ZNSt3__113basic_ostreamIcNS_11char_traitsIcEEElsB8ue170006EPFRS3_S4_E, symObjAddr: 0xF5C, symBinAddr: 0x100003DC0, symSize: 0x2C }
  - { offsetInCU: 0x191E0, offset: 0x191E0, size: 0x8, addend: 0x0, symName: __ZNSt3__16vectorIPN6seneca11WorkstationENS_9allocatorIS3_EEEC1B8ue170006Ev, symObjAddr: 0xFE0, symBinAddr: 0x100003E44, symSize: 0x2C }
  - { offsetInCU: 0x1920A, offset: 0x1920A, size: 0x8, addend: 0x0, symName: __ZNSt3__16vectorIN6seneca13CustomerOrderENS_9allocatorIS2_EEEC1B8ue170006Ev, symObjAddr: 0x100C, symBinAddr: 0x100003E70, symSize: 0x2C }
  - { offsetInCU: 0x19234, offset: 0x19234, size: 0x8, addend: 0x0, symName: __ZL12loadFromFileIN6seneca11WorkstationEEvPKcRNSt3__16vectorIPT_NS4_9allocatorIS7_EEEE, symObjAddr: 0x1038, symBinAddr: 0x100003E9C, symSize: 0x2E8 }
  - { offsetInCU: 0x19294, offset: 0x19294, size: 0x8, addend: 0x0, symName: __ZNSt3__16vectorIPN6seneca11WorkstationENS_9allocatorIS3_EEE5beginB8ue170006Ev, symObjAddr: 0x1320, symBinAddr: 0x100004184, symSize: 0x30 }
  - { offsetInCU: 0x192BC, offset: 0x192BC, size: 0x8, addend: 0x0, symName: __ZNSt3__16vectorIPN6seneca11WorkstationENS_9allocatorIS3_EEE3endB8ue170006Ev, symObjAddr: 0x1350, symBinAddr: 0x1000041B4, symSize: 0x30 }
  - { offsetInCU: 0x192E4, offset: 0x192E4, size: 0x8, addend: 0x0, symName: __ZNKSt3__111__wrap_iterIPPN6seneca11WorkstationEEdeB8ue170006Ev, symObjAddr: 0x13B4, symBinAddr: 0x100004218, symSize: 0x18 }
  - { offsetInCU: 0x1930A, offset: 0x1930A, size: 0x8, addend: 0x0, symName: __ZNSt3__111__wrap_iterIPPN6seneca11WorkstationEEppB8ue170006Ev, symObjAddr: 0x13CC, symBinAddr: 0x100004230, symSize: 0x20 }
  - { offsetInCU: 0x19330, offset: 0x19330, size: 0x8, addend: 0x0, symName: __ZNSt3__16vectorIPN6seneca11WorkstationENS_9allocatorIS3_EEEixB8ue170006Em, symObjAddr: 0x1438, symBinAddr: 0x10000429C, symSize: 0x24 }
  - { offsetInCU: 0x19367, offset: 0x19367, size: 0x8, addend: 0x0, symName: __ZL12loadFromFileIN6seneca13CustomerOrderEEvPKcRNSt3__16vectorIT_NS4_9allocatorIS6_EEEE, symObjAddr: 0x145C, symBinAddr: 0x1000042C0, symSize: 0x2CC }
  - { offsetInCU: 0x193DB, offset: 0x193DB, size: 0x8, addend: 0x0, symName: __ZNSt3__16vectorIN6seneca13CustomerOrderENS_9allocatorIS2_EEE5beginB8ue170006Ev, symObjAddr: 0x1728, symBinAddr: 0x10000458C, symSize: 0x30 }
  - { offsetInCU: 0x19403, offset: 0x19403, size: 0x8, addend: 0x0, symName: __ZNSt3__16vectorIN6seneca13CustomerOrderENS_9allocatorIS2_EEE3endB8ue170006Ev, symObjAddr: 0x1758, symBinAddr: 0x1000045BC, symSize: 0x30 }
  - { offsetInCU: 0x1942B, offset: 0x1942B, size: 0x8, addend: 0x0, symName: __ZNKSt3__111__wrap_iterIPN6seneca13CustomerOrderEEdeB8ue170006Ev, symObjAddr: 0x17BC, symBinAddr: 0x100004620, symSize: 0x18 }
  - { offsetInCU: 0x19451, offset: 0x19451, size: 0x8, addend: 0x0, symName: __ZNSt3__15dequeIN6seneca13CustomerOrderENS_9allocatorIS2_EEE9push_backEOS2_, symObjAddr: 0x17D4, symBinAddr: 0x100004638, symSize: 0xAC }
  - { offsetInCU: 0x19497, offset: 0x19497, size: 0x8, addend: 0x0, symName: __ZNSt3__111__wrap_iterIPN6seneca13CustomerOrderEEppB8ue170006Ev, symObjAddr: 0x1880, symBinAddr: 0x1000046E4, symSize: 0x20 }
  - { offsetInCU: 0x194C2, offset: 0x194C2, size: 0x8, addend: 0x0, symName: __ZNSt3__112basic_stringIcNS_11char_traitsIcEENS_9allocatorIcEEEC1B8ue170006ILi0EEEPKc, symObjAddr: 0x18A0, symBinAddr: 0x100004704, symSize: 0x34 }
  - { offsetInCU: 0x19510, offset: 0x19510, size: 0x8, addend: 0x0, symName: __ZN6seneca11LineManagerD1Ev, symObjAddr: 0x18D4, symBinAddr: 0x100004738, symSize: 0x2C }
  - { offsetInCU: 0x1953C, offset: 0x1953C, size: 0x8, addend: 0x0, symName: __ZNSt3__15dequeIN6seneca13CustomerOrderENS_9allocatorIS2_EEE5beginB8ue170006Ev, symObjAddr: 0x1940, symBinAddr: 0x1000047A4, symSize: 0xB8 }
  - { offsetInCU: 0x19571, offset: 0x19571, size: 0x8, addend: 0x0, symName: __ZNSt3__15dequeIN6seneca13CustomerOrderENS_9allocatorIS2_EEE3endB8ue170006Ev, symObjAddr: 0x19F8, symBinAddr: 0x10000485C, symSize: 0xBC }
  - { offsetInCU: 0x195B5, offset: 0x195B5, size: 0x8, addend: 0x0, symName: __ZNKSt3__116__deque_iteratorIN6seneca13CustomerOrderEPS2_RS2_PS3_lLl64EEdeB8ue170006Ev, symObjAddr: 0x1AE8, symBinAddr: 0x10000494C, symSize: 0x18 }
  - { offsetInCU: 0x195DB, offset: 0x195DB, size: 0x8, addend: 0x0, symName: __ZNSt3__116__deque_iteratorIN6seneca13CustomerOrderEPS2_RS2_PS3_lLl64EEppB8ue170006Ev, symObjAddr: 0x1B00, symBinAddr: 0x100004964, symSize: 0x70 }
  - { offsetInCU: 0x19601, offset: 0x19601, size: 0x8, addend: 0x0, symName: __ZN6seneca11WorkstationD1Ev, symObjAddr: 0x1B70, symBinAddr: 0x1000049D4, symSize: 0x2C }
  - { offsetInCU: 0x1962D, offset: 0x1962D, size: 0x8, addend: 0x0, symName: __ZNSt3__16vectorIN6seneca13CustomerOrderENS_9allocatorIS2_EEED1B8ue170006Ev, symObjAddr: 0x1B9C, symBinAddr: 0x100004A00, symSize: 0x2C }
  - { offsetInCU: 0x19657, offset: 0x19657, size: 0x8, addend: 0x0, symName: __ZNSt3__16vectorIPN6seneca11WorkstationENS_9allocatorIS3_EEED1B8ue170006Ev, symObjAddr: 0x1BC8, symBinAddr: 0x100004A2C, symSize: 0x2C }
  - { offsetInCU: 0x19681, offset: 0x19681, size: 0x8, addend: 0x0, symName: __ZNKSt3__111__wrap_iterIPPN6seneca11WorkstationEE4baseB8ue170006Ev, symObjAddr: 0x1C3C, symBinAddr: 0x100004AA0, symSize: 0x18 }
  - { offsetInCU: 0x196A7, offset: 0x196A7, size: 0x8, addend: 0x0, symName: __ZNKSt3__111__wrap_iterIPN6seneca13CustomerOrderEE4baseB8ue170006Ev, symObjAddr: 0x1C9C, symBinAddr: 0x100004B00, symSize: 0x18 }
  - { offsetInCU: 0x196CD, offset: 0x196CD, size: 0x8, addend: 0x0, symName: __ZN6seneca11LineManagerD2Ev, symObjAddr: 0x1CB4, symBinAddr: 0x100004B18, symSize: 0x2C }
  - { offsetInCU: 0x196F9, offset: 0x196F9, size: 0x8, addend: 0x0, symName: __ZN6seneca11WorkstationD2Ev, symObjAddr: 0x1CE0, symBinAddr: 0x100004B44, symSize: 0x38 }
  - { offsetInCU: 0x19725, offset: 0x19725, size: 0x8, addend: 0x0, symName: __ZNSt3__15dequeIN6seneca13CustomerOrderENS_9allocatorIS2_EEED1B8ue170006Ev, symObjAddr: 0x1D18, symBinAddr: 0x100004B7C, symSize: 0x2C }
  - { offsetInCU: 0x1974F, offset: 0x1974F, size: 0x8, addend: 0x0, symName: __ZN6seneca7StationD2Ev, symObjAddr: 0x1D44, symBinAddr: 0x100004BA8, symSize: 0x3C }
  - { offsetInCU: 0x1977B, offset: 0x1977B, size: 0x8, addend: 0x0, symName: __ZNSt3__15dequeIN6seneca13CustomerOrderENS_9allocatorIS2_EEED2B8ue170006Ev, symObjAddr: 0x1D80, symBinAddr: 0x100004BE4, symSize: 0xA4 }
  - { offsetInCU: 0x197D1, offset: 0x197D1, size: 0x8, addend: 0x0, symName: __ZNSt3__15dequeIN6seneca13CustomerOrderENS_9allocatorIS2_EEE5clearEv, symObjAddr: 0x1E24, symBinAddr: 0x100004C88, symSize: 0x194 }
  - { offsetInCU: 0x1982C, offset: 0x1982C, size: 0x8, addend: 0x0, symName: __ZNKSt3__15dequeIN6seneca13CustomerOrderENS_9allocatorIS2_EEE17__annotate_deleteB8ue170006Ev, symObjAddr: 0x1FB8, symBinAddr: 0x100004E1C, symSize: 0xE8 }
  - { offsetInCU: 0x1986F, offset: 0x1986F, size: 0x8, addend: 0x0, symName: __ZNSt3__114__split_bufferIPN6seneca13CustomerOrderENS_9allocatorIS3_EEE5beginB8ue170006Ev, symObjAddr: 0x20A0, symBinAddr: 0x100004F04, symSize: 0x18 }
  - { offsetInCU: 0x19895, offset: 0x19895, size: 0x8, addend: 0x0, symName: __ZNSt3__114__split_bufferIPN6seneca13CustomerOrderENS_9allocatorIS3_EEE3endB8ue170006Ev, symObjAddr: 0x20B8, symBinAddr: 0x100004F1C, symSize: 0x18 }
  - { offsetInCU: 0x198BB, offset: 0x198BB, size: 0x8, addend: 0x0, symName: __ZNSt3__116allocator_traitsINS_9allocatorIN6seneca13CustomerOrderEEEE10deallocateB8ue170006ERS4_PS3_m, symObjAddr: 0x20D0, symBinAddr: 0x100004F34, symSize: 0x34 }
  - { offsetInCU: 0x198FD, offset: 0x198FD, size: 0x8, addend: 0x0, symName: __ZNSt3__15dequeIN6seneca13CustomerOrderENS_9allocatorIS2_EEE7__allocB8ue170006Ev, symObjAddr: 0x2104, symBinAddr: 0x100004F68, symSize: 0x28 }
  - { offsetInCU: 0x19923, offset: 0x19923, size: 0x8, addend: 0x0, symName: __ZNSt3__114__split_bufferIPN6seneca13CustomerOrderENS_9allocatorIS3_EEED1Ev, symObjAddr: 0x212C, symBinAddr: 0x100004F90, symSize: 0x2C }
  - { offsetInCU: 0x1994F, offset: 0x1994F, size: 0x8, addend: 0x0, symName: __ZNSt3__116allocator_traitsINS_9allocatorIN6seneca13CustomerOrderEEEE7destroyB8ue170006IS3_vEEvRS4_PT_, symObjAddr: 0x2158, symBinAddr: 0x100004FBC, symSize: 0x2C }
  - { offsetInCU: 0x1998C, offset: 0x1998C, size: 0x8, addend: 0x0, symName: __ZNSt3__15dequeIN6seneca13CustomerOrderENS_9allocatorIS2_EEE6__sizeB8ue170006Ev, symObjAddr: 0x2184, symBinAddr: 0x100004FE8, symSize: 0x28 }
  - { offsetInCU: 0x199B2, offset: 0x199B2, size: 0x8, addend: 0x0, symName: __ZNKSt3__114__split_bufferIPN6seneca13CustomerOrderENS_9allocatorIS3_EEE4sizeB8ue170006Ev, symObjAddr: 0x21AC, symBinAddr: 0x100005010, symSize: 0x28 }
  - { offsetInCU: 0x199D8, offset: 0x199D8, size: 0x8, addend: 0x0, symName: __ZNSt3__114__split_bufferIPN6seneca13CustomerOrderENS_9allocatorIS3_EEE5frontB8ue170006Ev, symObjAddr: 0x21D4, symBinAddr: 0x100005038, symSize: 0x18 }
  - { offsetInCU: 0x199FE, offset: 0x199FE, size: 0x8, addend: 0x0, symName: __ZNSt3__114__split_bufferIPN6seneca13CustomerOrderENS_9allocatorIS3_EEE9pop_frontB8ue170006Ev, symObjAddr: 0x21EC, symBinAddr: 0x100005050, symSize: 0x2C }
  - { offsetInCU: 0x19A24, offset: 0x19A24, size: 0x8, addend: 0x0, symName: __ZNKSt3__15dequeIN6seneca13CustomerOrderENS_9allocatorIS2_EEE14__annotate_newB8ue170006Em, symObjAddr: 0x2218, symBinAddr: 0x10000507C, symSize: 0xB8 }
  - { offsetInCU: 0x19A59, offset: 0x19A59, size: 0x8, addend: 0x0, symName: __ZNSt3__19allocatorIN6seneca13CustomerOrderEE7destroyB8ue170006EPS2_, symObjAddr: 0x22D0, symBinAddr: 0x100005134, symSize: 0x28 }
  - { offsetInCU: 0x19A8D, offset: 0x19A8D, size: 0x8, addend: 0x0, symName: __ZNSt3__117__compressed_pairImNS_9allocatorIN6seneca13CustomerOrderEEEE5firstB8ue170006Ev, symObjAddr: 0x22F8, symBinAddr: 0x10000515C, symSize: 0x24 }
  - { offsetInCU: 0x19AB3, offset: 0x19AB3, size: 0x8, addend: 0x0, symName: __ZNSt3__122__compressed_pair_elemImLi0ELb0EE5__getB8ue170006Ev, symObjAddr: 0x231C, symBinAddr: 0x100005180, symSize: 0x14 }
  - { offsetInCU: 0x19AD9, offset: 0x19AD9, size: 0x8, addend: 0x0, symName: __ZNSt3__114__split_bufferIPN6seneca13CustomerOrderENS_9allocatorIS3_EEE19__destruct_at_beginB8ue170006EPS3_, symObjAddr: 0x2330, symBinAddr: 0x100005194, symSize: 0x2C }
  - { offsetInCU: 0x19B0D, offset: 0x19B0D, size: 0x8, addend: 0x0, symName: __ZNSt3__114__split_bufferIPN6seneca13CustomerOrderENS_9allocatorIS3_EEE19__destruct_at_beginEPS3_NS_17integral_constantIbLb1EEE, symObjAddr: 0x235C, symBinAddr: 0x1000051C0, symSize: 0x20 }
  - { offsetInCU: 0x19B4D, offset: 0x19B4D, size: 0x8, addend: 0x0, symName: __ZNKSt3__15dequeIN6seneca13CustomerOrderENS_9allocatorIS2_EEE18__annotate_from_toB8ue170006EmmNS5_22__asan_annotation_typeENS5_23__asan_annotation_placeE, symObjAddr: 0x237C, symBinAddr: 0x1000051E0, symSize: 0x580 }
  - { offsetInCU: 0x19D09, offset: 0x19D09, size: 0x8, addend: 0x0, symName: __ZNKSt3__114__split_bufferIPN6seneca13CustomerOrderENS_9allocatorIS3_EEE5beginB8ue170006Ev, symObjAddr: 0x28FC, symBinAddr: 0x100005760, symSize: 0x18 }
  - { offsetInCU: 0x19D2F, offset: 0x19D2F, size: 0x8, addend: 0x0, symName: __ZNKSt3__15dequeIN6seneca13CustomerOrderENS_9allocatorIS2_EEE4sizeB8ue170006Ev, symObjAddr: 0x2914, symBinAddr: 0x100005778, symSize: 0x28 }
  - { offsetInCU: 0x19D55, offset: 0x19D55, size: 0x8, addend: 0x0, symName: __ZNKSt3__15dequeIN6seneca13CustomerOrderENS_9allocatorIS2_EEE5emptyB8ue170006Ev, symObjAddr: 0x293C, symBinAddr: 0x1000057A0, symSize: 0x30 }
  - { offsetInCU: 0x19D7B, offset: 0x19D7B, size: 0x8, addend: 0x0, symName: __ZNKSt3__15dequeIN6seneca13CustomerOrderENS_9allocatorIS2_EEE44__annotate_double_ended_contiguous_containerB8ue170006EPKvS7_S7_S7_S7_S7_, symObjAddr: 0x2980, symBinAddr: 0x1000057E4, symSize: 0x28 }
  - { offsetInCU: 0x19DE3, offset: 0x19DE3, size: 0x8, addend: 0x0, symName: __ZNKSt3__15dequeIN6seneca13CustomerOrderENS_9allocatorIS2_EEE6__sizeB8ue170006Ev, symObjAddr: 0x29A8, symBinAddr: 0x10000580C, symSize: 0x28 }
  - { offsetInCU: 0x19E09, offset: 0x19E09, size: 0x8, addend: 0x0, symName: __ZNKSt3__117__compressed_pairImNS_9allocatorIN6seneca13CustomerOrderEEEE5firstB8ue170006Ev, symObjAddr: 0x29D0, symBinAddr: 0x100005834, symSize: 0x24 }
  - { offsetInCU: 0x19E2F, offset: 0x19E2F, size: 0x8, addend: 0x0, symName: __ZNKSt3__122__compressed_pair_elemImLi0ELb0EE5__getB8ue170006Ev, symObjAddr: 0x29F4, symBinAddr: 0x100005858, symSize: 0x14 }
  - { offsetInCU: 0x19E55, offset: 0x19E55, size: 0x8, addend: 0x0, symName: __ZNKSt3__15dequeIN6seneca13CustomerOrderENS_9allocatorIS2_EEE22__annotate_whole_blockB8ue170006EmNS5_22__asan_annotation_typeE, symObjAddr: 0x2A08, symBinAddr: 0x10000586C, symSize: 0xAC }
  - { offsetInCU: 0x19EC6, offset: 0x19EC6, size: 0x8, addend: 0x0, symName: __ZNKSt3__15dequeIN6seneca13CustomerOrderENS_9allocatorIS2_EEE23__annotate_poison_blockB8ue170006EPKvS7_, symObjAddr: 0x2AB4, symBinAddr: 0x100005918, symSize: 0x44 }
  - { offsetInCU: 0x19F0A, offset: 0x19F0A, size: 0x8, addend: 0x0, symName: __ZNSt3__19allocatorIN6seneca13CustomerOrderEE10deallocateB8ue170006EPS2_m, symObjAddr: 0x2AF8, symBinAddr: 0x10000595C, symSize: 0x40 }
  - { offsetInCU: 0x19F4C, offset: 0x19F4C, size: 0x8, addend: 0x0, symName: __ZNSt3__117__compressed_pairImNS_9allocatorIN6seneca13CustomerOrderEEEE6secondB8ue170006Ev, symObjAddr: 0x2C60, symBinAddr: 0x100005AC4, symSize: 0x24 }
  - { offsetInCU: 0x19F72, offset: 0x19F72, size: 0x8, addend: 0x0, symName: __ZNSt3__122__compressed_pair_elemINS_9allocatorIN6seneca13CustomerOrderEEELi1ELb1EE5__getB8ue170006Ev, symObjAddr: 0x2C84, symBinAddr: 0x100005AE8, symSize: 0x14 }
  - { offsetInCU: 0x19F98, offset: 0x19F98, size: 0x8, addend: 0x0, symName: __ZNSt3__114__split_bufferIPN6seneca13CustomerOrderENS_9allocatorIS3_EEED2Ev, symObjAddr: 0x2C98, symBinAddr: 0x100005AFC, symSize: 0x8C }
  - { offsetInCU: 0x19FC4, offset: 0x19FC4, size: 0x8, addend: 0x0, symName: __ZNSt3__114__split_bufferIPN6seneca13CustomerOrderENS_9allocatorIS3_EEE5clearB8ue170006Ev, symObjAddr: 0x2D24, symBinAddr: 0x100005B88, symSize: 0x28 }
  - { offsetInCU: 0x19FEA, offset: 0x19FEA, size: 0x8, addend: 0x0, symName: __ZNSt3__116allocator_traitsINS_9allocatorIPN6seneca13CustomerOrderEEEE10deallocateB8ue170006ERS5_PS4_m, symObjAddr: 0x2D4C, symBinAddr: 0x100005BB0, symSize: 0x34 }
  - { offsetInCU: 0x1A02C, offset: 0x1A02C, size: 0x8, addend: 0x0, symName: __ZNSt3__114__split_bufferIPN6seneca13CustomerOrderENS_9allocatorIS3_EEE7__allocB8ue170006Ev, symObjAddr: 0x2D80, symBinAddr: 0x100005BE4, symSize: 0x28 }
  - { offsetInCU: 0x1A052, offset: 0x1A052, size: 0x8, addend: 0x0, symName: __ZNKSt3__114__split_bufferIPN6seneca13CustomerOrderENS_9allocatorIS3_EEE8capacityB8ue170006Ev, symObjAddr: 0x2DA8, symBinAddr: 0x100005C0C, symSize: 0x40 }
  - { offsetInCU: 0x1A078, offset: 0x1A078, size: 0x8, addend: 0x0, symName: __ZNSt3__114__split_bufferIPN6seneca13CustomerOrderENS_9allocatorIS3_EEE17__destruct_at_endB8ue170006EPS3_, symObjAddr: 0x2DE8, symBinAddr: 0x100005C4C, symSize: 0x2C }
  - { offsetInCU: 0x1A0AC, offset: 0x1A0AC, size: 0x8, addend: 0x0, symName: __ZNSt3__114__split_bufferIPN6seneca13CustomerOrderENS_9allocatorIS3_EEE17__destruct_at_endB8ue170006EPS3_NS_17integral_constantIbLb0EEE, symObjAddr: 0x2E14, symBinAddr: 0x100005C78, symSize: 0x80 }
  - { offsetInCU: 0x1A0EC, offset: 0x1A0EC, size: 0x8, addend: 0x0, symName: __ZNSt3__116allocator_traitsINS_9allocatorIPN6seneca13CustomerOrderEEEE7destroyB8ue170006IS4_vEEvRS5_PT_, symObjAddr: 0x2E94, symBinAddr: 0x100005CF8, symSize: 0x2C }
  - { offsetInCU: 0x1A129, offset: 0x1A129, size: 0x8, addend: 0x0, symName: __ZNSt3__19allocatorIPN6seneca13CustomerOrderEE7destroyB8ue170006EPS3_, symObjAddr: 0x2ED4, symBinAddr: 0x100005D38, symSize: 0x14 }
  - { offsetInCU: 0x1A15D, offset: 0x1A15D, size: 0x8, addend: 0x0, symName: __ZNSt3__19allocatorIPN6seneca13CustomerOrderEE10deallocateB8ue170006EPS3_m, symObjAddr: 0x2EE8, symBinAddr: 0x100005D4C, symSize: 0x40 }
  - { offsetInCU: 0x1A19F, offset: 0x1A19F, size: 0x8, addend: 0x0, symName: __ZNSt3__117__compressed_pairIPPN6seneca13CustomerOrderENS_9allocatorIS3_EEE6secondB8ue170006Ev, symObjAddr: 0x2F28, symBinAddr: 0x100005D8C, symSize: 0x24 }
  - { offsetInCU: 0x1A1C5, offset: 0x1A1C5, size: 0x8, addend: 0x0, symName: __ZNSt3__122__compressed_pair_elemINS_9allocatorIPN6seneca13CustomerOrderEEELi1ELb1EE5__getB8ue170006Ev, symObjAddr: 0x2F4C, symBinAddr: 0x100005DB0, symSize: 0x14 }
  - { offsetInCU: 0x1A1EB, offset: 0x1A1EB, size: 0x8, addend: 0x0, symName: __ZNKSt3__114__split_bufferIPN6seneca13CustomerOrderENS_9allocatorIS3_EEE9__end_capB8ue170006Ev, symObjAddr: 0x2F60, symBinAddr: 0x100005DC4, symSize: 0x28 }
  - { offsetInCU: 0x1A211, offset: 0x1A211, size: 0x8, addend: 0x0, symName: __ZNKSt3__117__compressed_pairIPPN6seneca13CustomerOrderENS_9allocatorIS3_EEE5firstB8ue170006Ev, symObjAddr: 0x2F88, symBinAddr: 0x100005DEC, symSize: 0x24 }
  - { offsetInCU: 0x1A237, offset: 0x1A237, size: 0x8, addend: 0x0, symName: __ZNKSt3__122__compressed_pair_elemIPPN6seneca13CustomerOrderELi0ELb0EE5__getB8ue170006Ev, symObjAddr: 0x2FAC, symBinAddr: 0x100005E10, symSize: 0x14 }
  - { offsetInCU: 0x1A25D, offset: 0x1A25D, size: 0x8, addend: 0x0, symName: __ZNSt3__111char_traitsIcE6lengthB8ue170006EPKc, symObjAddr: 0x31AC, symBinAddr: 0x100006010, symSize: 0x34 }
  - { offsetInCU: 0x1A29E, offset: 0x1A29E, size: 0x8, addend: 0x0, symName: __ZNKSt3__113basic_ostreamIcNS_11char_traitsIcEEE6sentrycvbB8ue170006Ev, symObjAddr: 0x31E0, symBinAddr: 0x100006044, symSize: 0x1C }
  - { offsetInCU: 0x1A2C4, offset: 0x1A2C4, size: 0x8, addend: 0x0, symName: __ZNSt3__119ostreambuf_iteratorIcNS_11char_traitsIcEEEC1B8ue170006ERNS_13basic_ostreamIcS2_EE, symObjAddr: 0x343C, symBinAddr: 0x1000062A0, symSize: 0x34 }
  - { offsetInCU: 0x1A2FC, offset: 0x1A2FC, size: 0x8, addend: 0x0, symName: __ZNKSt3__18ios_base5flagsB8ue170006Ev, symObjAddr: 0x3470, symBinAddr: 0x1000062D4, symSize: 0x18 }
  - { offsetInCU: 0x1A324, offset: 0x1A324, size: 0x8, addend: 0x0, symName: __ZNKSt3__19basic_iosIcNS_11char_traitsIcEEE4fillB8ue170006Ev, symObjAddr: 0x3488, symBinAddr: 0x1000062EC, symSize: 0x64 }
  - { offsetInCU: 0x1A34C, offset: 0x1A34C, size: 0x8, addend: 0x0, symName: __ZNKSt3__119ostreambuf_iteratorIcNS_11char_traitsIcEEE6failedB8ue170006Ev, symObjAddr: 0x34EC, symBinAddr: 0x100006350, symSize: 0x24 }
  - { offsetInCU: 0x1A372, offset: 0x1A372, size: 0x8, addend: 0x0, symName: __ZNSt3__19basic_iosIcNS_11char_traitsIcEEE8setstateB8ue170006Ej, symObjAddr: 0x3510, symBinAddr: 0x100006374, symSize: 0x2C }
  - { offsetInCU: 0x1A3A7, offset: 0x1A3A7, size: 0x8, addend: 0x0, symName: __ZNKSt3__18ios_base5widthB8ue170006Ev, symObjAddr: 0x353C, symBinAddr: 0x1000063A0, symSize: 0x18 }
  - { offsetInCU: 0x1A3CF, offset: 0x1A3CF, size: 0x8, addend: 0x0, symName: __ZNSt3__115basic_streambufIcNS_11char_traitsIcEEE5sputnB8ue170006EPKcl, symObjAddr: 0x3554, symBinAddr: 0x1000063B8, symSize: 0x3C }
  - { offsetInCU: 0x1A411, offset: 0x1A411, size: 0x8, addend: 0x0, symName: __ZNSt3__112basic_stringIcNS_11char_traitsIcEENS_9allocatorIcEEEC1B8ue170006Emc, symObjAddr: 0x3590, symBinAddr: 0x1000063F4, symSize: 0x3C }
  - { offsetInCU: 0x1A459, offset: 0x1A459, size: 0x8, addend: 0x0, symName: __ZNSt3__112basic_stringIcNS_11char_traitsIcEENS_9allocatorIcEEE4dataB8ue170006Ev, symObjAddr: 0x35CC, symBinAddr: 0x100006430, symSize: 0x28 }
  - { offsetInCU: 0x1A47F, offset: 0x1A47F, size: 0x8, addend: 0x0, symName: __ZNSt3__18ios_base5widthB8ue170006El, symObjAddr: 0x35F4, symBinAddr: 0x100006458, symSize: 0x2C }
  - { offsetInCU: 0x1A4C5, offset: 0x1A4C5, size: 0x8, addend: 0x0, symName: __ZNSt3__112basic_stringIcNS_11char_traitsIcEENS_9allocatorIcEEEC2B8ue170006Emc, symObjAddr: 0x3620, symBinAddr: 0x100006484, symSize: 0x4C }
  - { offsetInCU: 0x1A513, offset: 0x1A513, size: 0x8, addend: 0x0, symName: __ZNSt3__117__compressed_pairINS_12basic_stringIcNS_11char_traitsIcEENS_9allocatorIcEEE5__repES5_EC1B8ue170006INS_18__default_init_tagESA_EEOT_OT0_, symObjAddr: 0x366C, symBinAddr: 0x1000064D0, symSize: 0x3C }
  - { offsetInCU: 0x1A56B, offset: 0x1A56B, size: 0x8, addend: 0x0, symName: __ZNSt3__117__compressed_pairINS_12basic_stringIcNS_11char_traitsIcEENS_9allocatorIcEEE5__repES5_EC2B8ue170006INS_18__default_init_tagESA_EEOT_OT0_, symObjAddr: 0x36A8, symBinAddr: 0x10000650C, symSize: 0x3C }
  - { offsetInCU: 0x1A5C3, offset: 0x1A5C3, size: 0x8, addend: 0x0, symName: __ZNSt3__122__compressed_pair_elemINS_12basic_stringIcNS_11char_traitsIcEENS_9allocatorIcEEE5__repELi0ELb0EEC2B8ue170006ENS_18__default_init_tagE, symObjAddr: 0x36E4, symBinAddr: 0x100006548, symSize: 0x14 }
  - { offsetInCU: 0x1A5F7, offset: 0x1A5F7, size: 0x8, addend: 0x0, symName: __ZNSt3__122__compressed_pair_elemINS_9allocatorIcEELi1ELb1EEC2B8ue170006ENS_18__default_init_tagE, symObjAddr: 0x36F8, symBinAddr: 0x10000655C, symSize: 0x2C }
  - { offsetInCU: 0x1A62B, offset: 0x1A62B, size: 0x8, addend: 0x0, symName: __ZNSt3__19allocatorIcEC2B8ue170006Ev, symObjAddr: 0x3724, symBinAddr: 0x100006588, symSize: 0x2C }
  - { offsetInCU: 0x1A655, offset: 0x1A655, size: 0x8, addend: 0x0, symName: __ZNSt3__116__non_trivial_ifILb1ENS_9allocatorIcEEEC2B8ue170006Ev, symObjAddr: 0x3750, symBinAddr: 0x1000065B4, symSize: 0x14 }
  - { offsetInCU: 0x1A67F, offset: 0x1A67F, size: 0x8, addend: 0x0, symName: __ZNSt3__112basic_stringIcNS_11char_traitsIcEENS_9allocatorIcEEE13__get_pointerB8ue170006Ev, symObjAddr: 0x3778, symBinAddr: 0x1000065DC, symSize: 0x54 }
  - { offsetInCU: 0x1A6A5, offset: 0x1A6A5, size: 0x8, addend: 0x0, symName: __ZNKSt3__112basic_stringIcNS_11char_traitsIcEENS_9allocatorIcEEE9__is_longB8ue170006Ev, symObjAddr: 0x37CC, symBinAddr: 0x100006630, symSize: 0x38 }
  - { offsetInCU: 0x1A6CB, offset: 0x1A6CB, size: 0x8, addend: 0x0, symName: __ZNSt3__112basic_stringIcNS_11char_traitsIcEENS_9allocatorIcEEE18__get_long_pointerB8ue170006Ev, symObjAddr: 0x3804, symBinAddr: 0x100006668, symSize: 0x28 }
  - { offsetInCU: 0x1A6F1, offset: 0x1A6F1, size: 0x8, addend: 0x0, symName: __ZNSt3__112basic_stringIcNS_11char_traitsIcEENS_9allocatorIcEEE19__get_short_pointerB8ue170006Ev, symObjAddr: 0x382C, symBinAddr: 0x100006690, symSize: 0x28 }
  - { offsetInCU: 0x1A717, offset: 0x1A717, size: 0x8, addend: 0x0, symName: __ZNKSt3__117__compressed_pairINS_12basic_stringIcNS_11char_traitsIcEENS_9allocatorIcEEE5__repES5_E5firstB8ue170006Ev, symObjAddr: 0x3854, symBinAddr: 0x1000066B8, symSize: 0x24 }
  - { offsetInCU: 0x1A73D, offset: 0x1A73D, size: 0x8, addend: 0x0, symName: __ZNKSt3__122__compressed_pair_elemINS_12basic_stringIcNS_11char_traitsIcEENS_9allocatorIcEEE5__repELi0ELb0EE5__getB8ue170006Ev, symObjAddr: 0x3878, symBinAddr: 0x1000066DC, symSize: 0x14 }
  - { offsetInCU: 0x1A763, offset: 0x1A763, size: 0x8, addend: 0x0, symName: __ZNSt3__117__compressed_pairINS_12basic_stringIcNS_11char_traitsIcEENS_9allocatorIcEEE5__repES5_E5firstB8ue170006Ev, symObjAddr: 0x388C, symBinAddr: 0x1000066F0, symSize: 0x24 }
  - { offsetInCU: 0x1A789, offset: 0x1A789, size: 0x8, addend: 0x0, symName: __ZNSt3__122__compressed_pair_elemINS_12basic_stringIcNS_11char_traitsIcEENS_9allocatorIcEEE5__repELi0ELb0EE5__getB8ue170006Ev, symObjAddr: 0x38B0, symBinAddr: 0x100006714, symSize: 0x14 }
  - { offsetInCU: 0x1A7AF, offset: 0x1A7AF, size: 0x8, addend: 0x0, symName: __ZNSt3__114pointer_traitsIPcE10pointer_toB8ue170006ERc, symObjAddr: 0x38C4, symBinAddr: 0x100006728, symSize: 0x14 }
  - { offsetInCU: 0x1A7D2, offset: 0x1A7D2, size: 0x8, addend: 0x0, symName: __ZNSt3__119ostreambuf_iteratorIcNS_11char_traitsIcEEEC2B8ue170006ERNS_13basic_ostreamIcS2_EE, symObjAddr: 0x38D8, symBinAddr: 0x10000673C, symSize: 0x54 }
  - { offsetInCU: 0x1A80A, offset: 0x1A80A, size: 0x8, addend: 0x0, symName: __ZNKSt3__19basic_iosIcNS_11char_traitsIcEEE5rdbufB8ue170006Ev, symObjAddr: 0x392C, symBinAddr: 0x100006790, symSize: 0x24 }
  - { offsetInCU: 0x1A832, offset: 0x1A832, size: 0x8, addend: 0x0, symName: __ZNKSt3__18ios_base5rdbufB8ue170006Ev, symObjAddr: 0x3950, symBinAddr: 0x1000067B4, symSize: 0x18 }
  - { offsetInCU: 0x1A858, offset: 0x1A858, size: 0x8, addend: 0x0, symName: __ZNSt3__111char_traitsIcE11eq_int_typeB8ue170006Eii, symObjAddr: 0x3968, symBinAddr: 0x1000067CC, symSize: 0x28 }
  - { offsetInCU: 0x1A88B, offset: 0x1A88B, size: 0x8, addend: 0x0, symName: __ZNSt3__111char_traitsIcE3eofB8ue170006Ev, symObjAddr: 0x3990, symBinAddr: 0x1000067F4, symSize: 0x8 }
  - { offsetInCU: 0x1A89F, offset: 0x1A89F, size: 0x8, addend: 0x0, symName: __ZNKSt3__19basic_iosIcNS_11char_traitsIcEEE5widenB8ue170006Ec, symObjAddr: 0x3998, symBinAddr: 0x1000067FC, symSize: 0x84 }
  - { offsetInCU: 0x1A908, offset: 0x1A908, size: 0x8, addend: 0x0, symName: __ZNKSt3__15ctypeIcE5widenB8ue170006Ec, symObjAddr: 0x3A48, symBinAddr: 0x1000068AC, symSize: 0x38 }
  - { offsetInCU: 0x1A93D, offset: 0x1A93D, size: 0x8, addend: 0x0, symName: __ZNSt3__18ios_base8setstateB8ue170006Ej, symObjAddr: 0x3A80, symBinAddr: 0x1000068E4, symSize: 0x34 }
  - { offsetInCU: 0x1A974, offset: 0x1A974, size: 0x8, addend: 0x0, symName: __ZNSt3__16vectorIPN6seneca11WorkstationENS_9allocatorIS3_EEEC2B8ue170006Ev, symObjAddr: 0x3AD8, symBinAddr: 0x10000693C, symSize: 0x4C }
  - { offsetInCU: 0x1A9A4, offset: 0x1A9A4, size: 0x8, addend: 0x0, symName: __ZNSt3__117__compressed_pairIPPN6seneca11WorkstationENS_9allocatorIS3_EEEC1B8ue170006IDnNS_18__default_init_tagEEEOT_OT0_, symObjAddr: 0x3B24, symBinAddr: 0x100006988, symSize: 0x3C }
  - { offsetInCU: 0x1A9FC, offset: 0x1A9FC, size: 0x8, addend: 0x0, symName: __ZNSt3__117__compressed_pairIPPN6seneca11WorkstationENS_9allocatorIS3_EEEC2B8ue170006IDnNS_18__default_init_tagEEEOT_OT0_, symObjAddr: 0x3B60, symBinAddr: 0x1000069C4, symSize: 0x40 }
  - { offsetInCU: 0x1AA54, offset: 0x1AA54, size: 0x8, addend: 0x0, symName: __ZNSt3__122__compressed_pair_elemIPPN6seneca11WorkstationELi0ELb0EEC2B8ue170006IDnvEEOT_, symObjAddr: 0x3BA0, symBinAddr: 0x100006A04, symSize: 0x1C }
  - { offsetInCU: 0x1AA96, offset: 0x1AA96, size: 0x8, addend: 0x0, symName: __ZNSt3__122__compressed_pair_elemINS_9allocatorIPN6seneca11WorkstationEEELi1ELb1EEC2B8ue170006ENS_18__default_init_tagE, symObjAddr: 0x3BBC, symBinAddr: 0x100006A20, symSize: 0x2C }
  - { offsetInCU: 0x1AACA, offset: 0x1AACA, size: 0x8, addend: 0x0, symName: __ZNSt3__19allocatorIPN6seneca11WorkstationEEC2B8ue170006Ev, symObjAddr: 0x3BE8, symBinAddr: 0x100006A4C, symSize: 0x2C }
  - { offsetInCU: 0x1AAF4, offset: 0x1AAF4, size: 0x8, addend: 0x0, symName: __ZNSt3__116__non_trivial_ifILb1ENS_9allocatorIPN6seneca11WorkstationEEEEC2B8ue170006Ev, symObjAddr: 0x3C14, symBinAddr: 0x100006A78, symSize: 0x14 }
  - { offsetInCU: 0x1AB1E, offset: 0x1AB1E, size: 0x8, addend: 0x0, symName: __ZNSt3__16vectorIPN6seneca11WorkstationENS_9allocatorIS3_EEED2B8ue170006Ev, symObjAddr: 0x3C28, symBinAddr: 0x100006A8C, symSize: 0x44 }
  - { offsetInCU: 0x1AB48, offset: 0x1AB48, size: 0x8, addend: 0x0, symName: __ZNSt3__16vectorIPN6seneca11WorkstationENS_9allocatorIS3_EEE16__destroy_vectorC1B8ue170006ERS6_, symObjAddr: 0x3C6C, symBinAddr: 0x100006AD0, symSize: 0x34 }
  - { offsetInCU: 0x1AB81, offset: 0x1AB81, size: 0x8, addend: 0x0, symName: __ZNSt3__16vectorIPN6seneca11WorkstationENS_9allocatorIS3_EEE16__destroy_vectorclB8ue170006Ev, symObjAddr: 0x3CA0, symBinAddr: 0x100006B04, symSize: 0x90 }
  - { offsetInCU: 0x1ABA7, offset: 0x1ABA7, size: 0x8, addend: 0x0, symName: __ZNSt3__16vectorIPN6seneca11WorkstationENS_9allocatorIS3_EEE16__destroy_vectorC2B8ue170006ERS6_, symObjAddr: 0x3D30, symBinAddr: 0x100006B94, symSize: 0x20 }
  - { offsetInCU: 0x1ABE0, offset: 0x1ABE0, size: 0x8, addend: 0x0, symName: __ZNSt3__16vectorIPN6seneca11WorkstationENS_9allocatorIS3_EEE7__clearB8ue170006Ev, symObjAddr: 0x3D50, symBinAddr: 0x100006BB4, symSize: 0x28 }
  - { offsetInCU: 0x1AC06, offset: 0x1AC06, size: 0x8, addend: 0x0, symName: __ZNKSt3__16vectorIPN6seneca11WorkstationENS_9allocatorIS3_EEE17__annotate_deleteB8ue170006Ev, symObjAddr: 0x3D78, symBinAddr: 0x100006BDC, symSize: 0xB8 }
  - { offsetInCU: 0x1AC2C, offset: 0x1AC2C, size: 0x8, addend: 0x0, symName: __ZNSt3__116allocator_traitsINS_9allocatorIPN6seneca11WorkstationEEEE10deallocateB8ue170006ERS5_PS4_m, symObjAddr: 0x3E30, symBinAddr: 0x100006C94, symSize: 0x34 }
  - { offsetInCU: 0x1AC6E, offset: 0x1AC6E, size: 0x8, addend: 0x0, symName: __ZNSt3__16vectorIPN6seneca11WorkstationENS_9allocatorIS3_EEE7__allocB8ue170006Ev, symObjAddr: 0x3E64, symBinAddr: 0x100006CC8, symSize: 0x28 }
  - { offsetInCU: 0x1AC94, offset: 0x1AC94, size: 0x8, addend: 0x0, symName: __ZNKSt3__16vectorIPN6seneca11WorkstationENS_9allocatorIS3_EEE8capacityB8ue170006Ev, symObjAddr: 0x3E8C, symBinAddr: 0x100006CF0, symSize: 0x40 }
  - { offsetInCU: 0x1ACBA, offset: 0x1ACBA, size: 0x8, addend: 0x0, symName: __ZNSt3__16vectorIPN6seneca11WorkstationENS_9allocatorIS3_EEE22__base_destruct_at_endB8ue170006EPS3_, symObjAddr: 0x3ECC, symBinAddr: 0x100006D30, symSize: 0x8C }
  - { offsetInCU: 0x1ACFE, offset: 0x1ACFE, size: 0x8, addend: 0x0, symName: __ZNSt3__116allocator_traitsINS_9allocatorIPN6seneca11WorkstationEEEE7destroyB8ue170006IS4_vEEvRS5_PT_, symObjAddr: 0x3F58, symBinAddr: 0x100006DBC, symSize: 0x2C }
  - { offsetInCU: 0x1AD3B, offset: 0x1AD3B, size: 0x8, addend: 0x0, symName: __ZNSt3__19allocatorIPN6seneca11WorkstationEE7destroyB8ue170006EPS3_, symObjAddr: 0x3F98, symBinAddr: 0x100006DFC, symSize: 0x14 }
  - { offsetInCU: 0x1AD6F, offset: 0x1AD6F, size: 0x8, addend: 0x0, symName: __ZNKSt3__16vectorIPN6seneca11WorkstationENS_9allocatorIS3_EEE31__annotate_contiguous_containerB8ue170006EPKvS8_S8_S8_, symObjAddr: 0x3FAC, symBinAddr: 0x100006E10, symSize: 0x20 }
  - { offsetInCU: 0x1ADC1, offset: 0x1ADC1, size: 0x8, addend: 0x0, symName: __ZNKSt3__16vectorIPN6seneca11WorkstationENS_9allocatorIS3_EEE4dataB8ue170006Ev, symObjAddr: 0x3FCC, symBinAddr: 0x100006E30, symSize: 0x28 }
  - { offsetInCU: 0x1ADE7, offset: 0x1ADE7, size: 0x8, addend: 0x0, symName: __ZNKSt3__16vectorIPN6seneca11WorkstationENS_9allocatorIS3_EEE4sizeB8ue170006Ev, symObjAddr: 0x3FF4, symBinAddr: 0x100006E58, symSize: 0x28 }
  - { offsetInCU: 0x1AE0D, offset: 0x1AE0D, size: 0x8, addend: 0x0, symName: __ZNSt3__19allocatorIPN6seneca11WorkstationEE10deallocateB8ue170006EPS3_m, symObjAddr: 0x401C, symBinAddr: 0x100006E80, symSize: 0x40 }
  - { offsetInCU: 0x1AE4F, offset: 0x1AE4F, size: 0x8, addend: 0x0, symName: __ZNSt3__117__compressed_pairIPPN6seneca11WorkstationENS_9allocatorIS3_EEE6secondB8ue170006Ev, symObjAddr: 0x405C, symBinAddr: 0x100006EC0, symSize: 0x24 }
  - { offsetInCU: 0x1AE75, offset: 0x1AE75, size: 0x8, addend: 0x0, symName: __ZNSt3__122__compressed_pair_elemINS_9allocatorIPN6seneca11WorkstationEEELi1ELb1EE5__getB8ue170006Ev, symObjAddr: 0x4080, symBinAddr: 0x100006EE4, symSize: 0x14 }
  - { offsetInCU: 0x1AE9B, offset: 0x1AE9B, size: 0x8, addend: 0x0, symName: __ZNKSt3__16vectorIPN6seneca11WorkstationENS_9allocatorIS3_EEE9__end_capB8ue170006Ev, symObjAddr: 0x4094, symBinAddr: 0x100006EF8, symSize: 0x28 }
  - { offsetInCU: 0x1AEC1, offset: 0x1AEC1, size: 0x8, addend: 0x0, symName: __ZNKSt3__117__compressed_pairIPPN6seneca11WorkstationENS_9allocatorIS3_EEE5firstB8ue170006Ev, symObjAddr: 0x40BC, symBinAddr: 0x100006F20, symSize: 0x24 }
  - { offsetInCU: 0x1AEE7, offset: 0x1AEE7, size: 0x8, addend: 0x0, symName: __ZNKSt3__122__compressed_pair_elemIPPN6seneca11WorkstationELi0ELb0EE5__getB8ue170006Ev, symObjAddr: 0x40E0, symBinAddr: 0x100006F44, symSize: 0x14 }
  - { offsetInCU: 0x1AF0D, offset: 0x1AF0D, size: 0x8, addend: 0x0, symName: __ZNSt3__16vectorIN6seneca13CustomerOrderENS_9allocatorIS2_EEEC2B8ue170006Ev, symObjAddr: 0x40F4, symBinAddr: 0x100006F58, symSize: 0x4C }
  - { offsetInCU: 0x1AF37, offset: 0x1AF37, size: 0x8, addend: 0x0, symName: __ZNSt3__117__compressed_pairIPN6seneca13CustomerOrderENS_9allocatorIS2_EEEC1B8ue170006IDnNS_18__default_init_tagEEEOT_OT0_, symObjAddr: 0x4140, symBinAddr: 0x100006FA4, symSize: 0x3C }
  - { offsetInCU: 0x1AF8F, offset: 0x1AF8F, size: 0x8, addend: 0x0, symName: __ZNSt3__117__compressed_pairIPN6seneca13CustomerOrderENS_9allocatorIS2_EEEC2B8ue170006IDnNS_18__default_init_tagEEEOT_OT0_, symObjAddr: 0x417C, symBinAddr: 0x100006FE0, symSize: 0x40 }
  - { offsetInCU: 0x1AFE7, offset: 0x1AFE7, size: 0x8, addend: 0x0, symName: __ZNSt3__122__compressed_pair_elemIPN6seneca13CustomerOrderELi0ELb0EEC2B8ue170006IDnvEEOT_, symObjAddr: 0x41BC, symBinAddr: 0x100007020, symSize: 0x1C }
  - { offsetInCU: 0x1B029, offset: 0x1B029, size: 0x8, addend: 0x0, symName: __ZNSt3__122__compressed_pair_elemINS_9allocatorIN6seneca13CustomerOrderEEELi1ELb1EEC2B8ue170006ENS_18__default_init_tagE, symObjAddr: 0x41D8, symBinAddr: 0x10000703C, symSize: 0x2C }
  - { offsetInCU: 0x1B05D, offset: 0x1B05D, size: 0x8, addend: 0x0, symName: __ZNSt3__19allocatorIN6seneca13CustomerOrderEEC2B8ue170006Ev, symObjAddr: 0x4204, symBinAddr: 0x100007068, symSize: 0x2C }
  - { offsetInCU: 0x1B087, offset: 0x1B087, size: 0x8, addend: 0x0, symName: __ZNSt3__116__non_trivial_ifILb1ENS_9allocatorIN6seneca13CustomerOrderEEEEC2B8ue170006Ev, symObjAddr: 0x4230, symBinAddr: 0x100007094, symSize: 0x14 }
  - { offsetInCU: 0x1B0B1, offset: 0x1B0B1, size: 0x8, addend: 0x0, symName: __ZNSt3__16vectorIN6seneca13CustomerOrderENS_9allocatorIS2_EEED2B8ue170006Ev, symObjAddr: 0x4244, symBinAddr: 0x1000070A8, symSize: 0x44 }
  - { offsetInCU: 0x1B0DB, offset: 0x1B0DB, size: 0x8, addend: 0x0, symName: __ZNSt3__16vectorIN6seneca13CustomerOrderENS_9allocatorIS2_EEE16__destroy_vectorC1B8ue170006ERS5_, symObjAddr: 0x4288, symBinAddr: 0x1000070EC, symSize: 0x34 }
  - { offsetInCU: 0x1B114, offset: 0x1B114, size: 0x8, addend: 0x0, symName: __ZNSt3__16vectorIN6seneca13CustomerOrderENS_9allocatorIS2_EEE16__destroy_vectorclB8ue170006Ev, symObjAddr: 0x42BC, symBinAddr: 0x100007120, symSize: 0x90 }
  - { offsetInCU: 0x1B13A, offset: 0x1B13A, size: 0x8, addend: 0x0, symName: __ZNSt3__16vectorIN6seneca13CustomerOrderENS_9allocatorIS2_EEE16__destroy_vectorC2B8ue170006ERS5_, symObjAddr: 0x434C, symBinAddr: 0x1000071B0, symSize: 0x20 }
  - { offsetInCU: 0x1B173, offset: 0x1B173, size: 0x8, addend: 0x0, symName: __ZNSt3__16vectorIN6seneca13CustomerOrderENS_9allocatorIS2_EEE7__clearB8ue170006Ev, symObjAddr: 0x436C, symBinAddr: 0x1000071D0, symSize: 0x28 }
  - { offsetInCU: 0x1B199, offset: 0x1B199, size: 0x8, addend: 0x0, symName: __ZNKSt3__16vectorIN6seneca13CustomerOrderENS_9allocatorIS2_EEE17__annotate_deleteB8ue170006Ev, symObjAddr: 0x4394, symBinAddr: 0x1000071F8, symSize: 0xB8 }
  - { offsetInCU: 0x1B1BF, offset: 0x1B1BF, size: 0x8, addend: 0x0, symName: __ZNSt3__16vectorIN6seneca13CustomerOrderENS_9allocatorIS2_EEE7__allocB8ue170006Ev, symObjAddr: 0x444C, symBinAddr: 0x1000072B0, symSize: 0x28 }
  - { offsetInCU: 0x1B1E5, offset: 0x1B1E5, size: 0x8, addend: 0x0, symName: __ZNKSt3__16vectorIN6seneca13CustomerOrderENS_9allocatorIS2_EEE8capacityB8ue170006Ev, symObjAddr: 0x4474, symBinAddr: 0x1000072D8, symSize: 0x40 }
  - { offsetInCU: 0x1B20B, offset: 0x1B20B, size: 0x8, addend: 0x0, symName: __ZNSt3__16vectorIN6seneca13CustomerOrderENS_9allocatorIS2_EEE22__base_destruct_at_endB8ue170006EPS2_, symObjAddr: 0x44B4, symBinAddr: 0x100007318, symSize: 0x8C }
  - { offsetInCU: 0x1B24F, offset: 0x1B24F, size: 0x8, addend: 0x0, symName: __ZNKSt3__16vectorIN6seneca13CustomerOrderENS_9allocatorIS2_EEE31__annotate_contiguous_containerB8ue170006EPKvS7_S7_S7_, symObjAddr: 0x4540, symBinAddr: 0x1000073A4, symSize: 0x20 }
  - { offsetInCU: 0x1B2A1, offset: 0x1B2A1, size: 0x8, addend: 0x0, symName: __ZNKSt3__16vectorIN6seneca13CustomerOrderENS_9allocatorIS2_EEE4dataB8ue170006Ev, symObjAddr: 0x4560, symBinAddr: 0x1000073C4, symSize: 0x28 }
  - { offsetInCU: 0x1B2C7, offset: 0x1B2C7, size: 0x8, addend: 0x0, symName: __ZNKSt3__16vectorIN6seneca13CustomerOrderENS_9allocatorIS2_EEE4sizeB8ue170006Ev, symObjAddr: 0x4588, symBinAddr: 0x1000073EC, symSize: 0x28 }
  - { offsetInCU: 0x1B2ED, offset: 0x1B2ED, size: 0x8, addend: 0x0, symName: __ZNSt3__117__compressed_pairIPN6seneca13CustomerOrderENS_9allocatorIS2_EEE6secondB8ue170006Ev, symObjAddr: 0x45B0, symBinAddr: 0x100007414, symSize: 0x24 }
  - { offsetInCU: 0x1B313, offset: 0x1B313, size: 0x8, addend: 0x0, symName: __ZNKSt3__16vectorIN6seneca13CustomerOrderENS_9allocatorIS2_EEE9__end_capB8ue170006Ev, symObjAddr: 0x45D4, symBinAddr: 0x100007438, symSize: 0x28 }
  - { offsetInCU: 0x1B339, offset: 0x1B339, size: 0x8, addend: 0x0, symName: __ZNKSt3__117__compressed_pairIPN6seneca13CustomerOrderENS_9allocatorIS2_EEE5firstB8ue170006Ev, symObjAddr: 0x45FC, symBinAddr: 0x100007460, symSize: 0x24 }
  - { offsetInCU: 0x1B35F, offset: 0x1B35F, size: 0x8, addend: 0x0, symName: __ZNKSt3__122__compressed_pair_elemIPN6seneca13CustomerOrderELi0ELb0EE5__getB8ue170006Ev, symObjAddr: 0x4620, symBinAddr: 0x100007484, symSize: 0x14 }
  - { offsetInCU: 0x1B492, offset: 0x1B492, size: 0x8, addend: 0x0, symName: __ZNSt3__114basic_ifstreamIcNS_11char_traitsIcEEEC1EPKcj, symObjAddr: 0x4634, symBinAddr: 0x100007498, symSize: 0x16C }
  - { offsetInCU: 0x1B4DC, offset: 0x1B4DC, size: 0x8, addend: 0x0, symName: __ZNKSt3__19basic_iosIcNS_11char_traitsIcEEEntB8ue170006Ev, symObjAddr: 0x47A0, symBinAddr: 0x100007604, symSize: 0x28 }
  - { offsetInCU: 0x1B502, offset: 0x1B502, size: 0x8, addend: 0x0, symName: __ZNSt3__112basic_stringIcNS_11char_traitsIcEENS_9allocatorIcEEEC1B8ue170006Ev, symObjAddr: 0x4808, symBinAddr: 0x10000766C, symSize: 0x2C }
  - { offsetInCU: 0x1B52C, offset: 0x1B52C, size: 0x8, addend: 0x0, symName: __ZNKSt3__19basic_iosIcNS_11char_traitsIcEEE3eofB8ue170006Ev, symObjAddr: 0x4834, symBinAddr: 0x100007698, symSize: 0x28 }
  - { offsetInCU: 0x1B552, offset: 0x1B552, size: 0x8, addend: 0x0, symName: __ZNSt3__16vectorIPN6seneca11WorkstationENS_9allocatorIS3_EEE9push_backB8ue170006EOS3_, symObjAddr: 0x48B8, symBinAddr: 0x10000771C, symSize: 0x6C }
  - { offsetInCU: 0x1B589, offset: 0x1B589, size: 0x8, addend: 0x0, symName: __ZN6seneca11WorkstationC1ERKNSt3__112basic_stringIcNS1_11char_traitsIcEENS1_9allocatorIcEEEE, symObjAddr: 0x4924, symBinAddr: 0x100007788, symSize: 0x34 }
  - { offsetInCU: 0x1B5C1, offset: 0x1B5C1, size: 0x8, addend: 0x0, symName: __ZNSt3__114basic_ifstreamIcNS_11char_traitsIcEEE5closeEv, symObjAddr: 0x4958, symBinAddr: 0x1000077BC, symSize: 0x58 }
  - { offsetInCU: 0x1B5EE, offset: 0x1B5EE, size: 0x8, addend: 0x0, symName: __ZNSt3__114basic_ifstreamIcNS_11char_traitsIcEEED1Ev, symObjAddr: 0x49B0, symBinAddr: 0x100007814, symSize: 0x40 }
  - { offsetInCU: 0x1B61B, offset: 0x1B61B, size: 0x8, addend: 0x0, symName: __ZNSt3__19basic_iosIcNS_11char_traitsIcEEEC2B8ue170006Ev, symObjAddr: 0x49F0, symBinAddr: 0x100007854, symSize: 0x44 }
  - { offsetInCU: 0x1B645, offset: 0x1B645, size: 0x8, addend: 0x0, symName: __ZNSt3__113basic_istreamIcNS_11char_traitsIcEEEC2B8ue170006EPNS_15basic_streambufIcS2_EE, symObjAddr: 0x4A34, symBinAddr: 0x100007898, symSize: 0x64 }
  - { offsetInCU: 0x1B68A, offset: 0x1B68A, size: 0x8, addend: 0x0, symName: __ZNSt3__18ios_baseC2B8ue170006Ev, symObjAddr: 0x4A98, symBinAddr: 0x1000078FC, symSize: 0x24 }
  - { offsetInCU: 0x1B6B4, offset: 0x1B6B4, size: 0x8, addend: 0x0, symName: __ZNSt3__19basic_iosIcNS_11char_traitsIcEEE4initB8ue170006EPNS_15basic_streambufIcS2_EE, symObjAddr: 0x4ABC, symBinAddr: 0x100007920, symSize: 0x44 }
  - { offsetInCU: 0x1B6EB, offset: 0x1B6EB, size: 0x8, addend: 0x0, symName: __ZNKSt3__19basic_iosIcNS_11char_traitsIcEEE4failB8ue170006Ev, symObjAddr: 0x4B00, symBinAddr: 0x100007964, symSize: 0x28 }
  - { offsetInCU: 0x1B711, offset: 0x1B711, size: 0x8, addend: 0x0, symName: __ZNKSt3__18ios_base4failB8ue170006Ev, symObjAddr: 0x4B28, symBinAddr: 0x10000798C, symSize: 0x28 }
  - { offsetInCU: 0x1B739, offset: 0x1B739, size: 0x8, addend: 0x0, symName: __ZNSt3__112basic_stringIcNS_11char_traitsIcEENS_9allocatorIcEEEC1B8ue170006EOS5_, symObjAddr: 0x4B50, symBinAddr: 0x1000079B4, symSize: 0x34 }
  - { offsetInCU: 0x1B772, offset: 0x1B772, size: 0x8, addend: 0x0, symName: __ZNSt3__112basic_stringIcNS_11char_traitsIcEENS_9allocatorIcEEEC2B8ue170006EOS5_, symObjAddr: 0x4B84, symBinAddr: 0x1000079E8, symSize: 0x50 }
  - { offsetInCU: 0x1B7AB, offset: 0x1B7AB, size: 0x8, addend: 0x0, symName: __ZNSt3__112basic_stringIcNS_11char_traitsIcEENS_9allocatorIcEEE14__default_initB8ue170006Ev, symObjAddr: 0x4BD4, symBinAddr: 0x100007A38, symSize: 0x40 }
  - { offsetInCU: 0x1B7D1, offset: 0x1B7D1, size: 0x8, addend: 0x0, symName: __ZNSt3__112basic_stringIcNS_11char_traitsIcEENS_9allocatorIcEEEC2B8ue170006Ev, symObjAddr: 0x4C14, symBinAddr: 0x100007A78, symSize: 0x44 }
  - { offsetInCU: 0x1B7FB, offset: 0x1B7FB, size: 0x8, addend: 0x0, symName: __ZNKSt3__18ios_base3eofB8ue170006Ev, symObjAddr: 0x4C58, symBinAddr: 0x100007ABC, symSize: 0x24 }
  - { offsetInCU: 0x1B841, offset: 0x1B841, size: 0x8, addend: 0x0, symName: __ZNKSt3__113basic_istreamIcNS_11char_traitsIcEEE6sentrycvbB8ue170006Ev, symObjAddr: 0x4EB4, symBinAddr: 0x100007D18, symSize: 0x1C }
  - { offsetInCU: 0x1B867, offset: 0x1B867, size: 0x8, addend: 0x0, symName: __ZNSt3__112basic_stringIcNS_11char_traitsIcEENS_9allocatorIcEEE5clearB8ue170006Ev, symObjAddr: 0x4ED0, symBinAddr: 0x100007D34, symSize: 0x78 }
  - { offsetInCU: 0x1B88F, offset: 0x1B88F, size: 0x8, addend: 0x0, symName: __ZNSt3__115basic_streambufIcNS_11char_traitsIcEEE6sbumpcB8ue170006Ev, symObjAddr: 0x4F48, symBinAddr: 0x100007DAC, symSize: 0x78 }
  - { offsetInCU: 0x1B8B5, offset: 0x1B8B5, size: 0x8, addend: 0x0, symName: __ZNSt3__111char_traitsIcE12to_char_typeB8ue170006Ei, symObjAddr: 0x4FC0, symBinAddr: 0x100007E24, symSize: 0x18 }
  - { offsetInCU: 0x1B8D8, offset: 0x1B8D8, size: 0x8, addend: 0x0, symName: __ZNSt3__111char_traitsIcE2eqEcc, symObjAddr: 0x4FD8, symBinAddr: 0x100007E3C, symSize: 0x28 }
  - { offsetInCU: 0x1B909, offset: 0x1B909, size: 0x8, addend: 0x0, symName: __ZNKSt3__112basic_stringIcNS_11char_traitsIcEENS_9allocatorIcEEE4sizeB8ue170006Ev, symObjAddr: 0x5000, symBinAddr: 0x100007E64, symSize: 0x54 }
  - { offsetInCU: 0x1B92F, offset: 0x1B92F, size: 0x8, addend: 0x0, symName: __ZNKSt3__112basic_stringIcNS_11char_traitsIcEENS_9allocatorIcEEE8max_sizeB8ue170006Ev, symObjAddr: 0x5054, symBinAddr: 0x100007EB8, symSize: 0xAC }
  - { offsetInCU: 0x1B981, offset: 0x1B981, size: 0x8, addend: 0x0, symName: __ZNSt3__18ios_base18__setstate_nothrowB8ue170006Ej, symObjAddr: 0x5100, symBinAddr: 0x100007F64, symSize: 0x64 }
  - { offsetInCU: 0x1B9B6, offset: 0x1B9B6, size: 0x8, addend: 0x0, symName: __ZNKSt3__19basic_iosIcNS_11char_traitsIcEEE10exceptionsB8ue170006Ev, symObjAddr: 0x5164, symBinAddr: 0x100007FC8, symSize: 0x24 }
  - { offsetInCU: 0x1B9DC, offset: 0x1B9DC, size: 0x8, addend: 0x0, symName: __ZNSt3__111char_traitsIcE6assignB8ue170006ERcRKc, symObjAddr: 0x5188, symBinAddr: 0x100007FEC, symSize: 0x24 }
  - { offsetInCU: 0x1BA0D, offset: 0x1BA0D, size: 0x8, addend: 0x0, symName: __ZNSt3__112basic_stringIcNS_11char_traitsIcEENS_9allocatorIcEEE15__set_long_sizeB8ue170006Em, symObjAddr: 0x51AC, symBinAddr: 0x100008010, symSize: 0x38 }
  - { offsetInCU: 0x1BA42, offset: 0x1BA42, size: 0x8, addend: 0x0, symName: __ZNSt3__112basic_stringIcNS_11char_traitsIcEENS_9allocatorIcEEE16__set_short_sizeB8ue170006Em, symObjAddr: 0x51E4, symBinAddr: 0x100008048, symSize: 0x78 }
  - { offsetInCU: 0x1BA77, offset: 0x1BA77, size: 0x8, addend: 0x0, symName: __ZNSt3__111char_traitsIcE11to_int_typeB8ue170006Ec, symObjAddr: 0x525C, symBinAddr: 0x1000080C0, symSize: 0x14 }
  - { offsetInCU: 0x1BA9B, offset: 0x1BA9B, size: 0x8, addend: 0x0, symName: __ZNKSt3__112basic_stringIcNS_11char_traitsIcEENS_9allocatorIcEEE15__get_long_sizeB8ue170006Ev, symObjAddr: 0x5270, symBinAddr: 0x1000080D4, symSize: 0x28 }
  - { offsetInCU: 0x1BAC1, offset: 0x1BAC1, size: 0x8, addend: 0x0, symName: __ZNKSt3__112basic_stringIcNS_11char_traitsIcEENS_9allocatorIcEEE16__get_short_sizeB8ue170006Ev, symObjAddr: 0x5298, symBinAddr: 0x1000080FC, symSize: 0x34 }
  - { offsetInCU: 0x1BAF1, offset: 0x1BAF1, size: 0x8, addend: 0x0, symName: __ZNSt3__116allocator_traitsINS_9allocatorIcEEE8max_sizeB8ue170006IS2_vEEmRKS2_, symObjAddr: 0x52CC, symBinAddr: 0x100008130, symSize: 0x24 }
  - { offsetInCU: 0x1BB1F, offset: 0x1BB1F, size: 0x8, addend: 0x0, symName: __ZNKSt3__112basic_stringIcNS_11char_traitsIcEENS_9allocatorIcEEE7__allocB8ue170006Ev, symObjAddr: 0x52F0, symBinAddr: 0x100008154, symSize: 0x24 }
  - { offsetInCU: 0x1BB45, offset: 0x1BB45, size: 0x8, addend: 0x0, symName: __ZNSt3__114numeric_limitsImE3maxB8ue170006Ev, symObjAddr: 0x5314, symBinAddr: 0x100008178, symSize: 0x14 }
  - { offsetInCU: 0x1BB59, offset: 0x1BB59, size: 0x8, addend: 0x0, symName: __ZNKSt3__19allocatorIcE8max_sizeB8ue170006Ev, symObjAddr: 0x5328, symBinAddr: 0x10000818C, symSize: 0x14 }
  - { offsetInCU: 0x1BB7F, offset: 0x1BB7F, size: 0x8, addend: 0x0, symName: __ZNKSt3__117__compressed_pairINS_12basic_stringIcNS_11char_traitsIcEENS_9allocatorIcEEE5__repES5_E6secondB8ue170006Ev, symObjAddr: 0x533C, symBinAddr: 0x1000081A0, symSize: 0x24 }
  - { offsetInCU: 0x1BBA5, offset: 0x1BBA5, size: 0x8, addend: 0x0, symName: __ZNKSt3__122__compressed_pair_elemINS_9allocatorIcEELi1ELb1EE5__getB8ue170006Ev, symObjAddr: 0x5360, symBinAddr: 0x1000081C4, symSize: 0x14 }
  - { offsetInCU: 0x1BBCB, offset: 0x1BBCB, size: 0x8, addend: 0x0, symName: __ZNSt3__123__libcpp_numeric_limitsImLb1EE3maxB8ue170006Ev, symObjAddr: 0x5374, symBinAddr: 0x1000081D8, symSize: 0x8 }
  - { offsetInCU: 0x1BBDF, offset: 0x1BBDF, size: 0x8, addend: 0x0, symName: __ZNKSt3__18ios_base10exceptionsB8ue170006Ev, symObjAddr: 0x537C, symBinAddr: 0x1000081E0, symSize: 0x18 }
  - { offsetInCU: 0x1BC07, offset: 0x1BC07, size: 0x8, addend: 0x0, symName: __ZNSt3__16vectorIPN6seneca11WorkstationENS_9allocatorIS3_EEE9__end_capB8ue170006Ev, symObjAddr: 0x5394, symBinAddr: 0x1000081F8, symSize: 0x28 }
  - { offsetInCU: 0x1BC33, offset: 0x1BC33, size: 0x8, addend: 0x0, symName: __ZNSt3__16vectorIPN6seneca11WorkstationENS_9allocatorIS3_EEE22__construct_one_at_endB8ue170006IJS3_EEEvDpOT_, symObjAddr: 0x53BC, symBinAddr: 0x100008220, symSize: 0x90 }
  - { offsetInCU: 0x1BC82, offset: 0x1BC82, size: 0x8, addend: 0x0, symName: __ZNSt3__16vectorIPN6seneca11WorkstationENS_9allocatorIS3_EEE21__push_back_slow_pathIS3_EEvOT_, symObjAddr: 0x544C, symBinAddr: 0x1000082B0, symSize: 0xD8 }
  - { offsetInCU: 0x1BCE0, offset: 0x1BCE0, size: 0x8, addend: 0x0, symName: __ZNSt3__117__compressed_pairIPPN6seneca11WorkstationENS_9allocatorIS3_EEE5firstB8ue170006Ev, symObjAddr: 0x5524, symBinAddr: 0x100008388, symSize: 0x24 }
  - { offsetInCU: 0x1BD06, offset: 0x1BD06, size: 0x8, addend: 0x0, symName: __ZNSt3__122__compressed_pair_elemIPPN6seneca11WorkstationELi0ELb0EE5__getB8ue170006Ev, symObjAddr: 0x5548, symBinAddr: 0x1000083AC, symSize: 0x14 }
  - { offsetInCU: 0x1BD45, offset: 0x1BD45, size: 0x8, addend: 0x0, symName: __ZNSt3__16vectorIPN6seneca11WorkstationENS_9allocatorIS3_EEE21_ConstructTransactionC1B8ue170006ERS6_m, symObjAddr: 0x555C, symBinAddr: 0x1000083C0, symSize: 0x3C }
  - { offsetInCU: 0x1BD8D, offset: 0x1BD8D, size: 0x8, addend: 0x0, symName: __ZNSt3__116allocator_traitsINS_9allocatorIPN6seneca11WorkstationEEEE9constructB8ue170006IS4_JS4_EvEEvRS5_PT_DpOT0_, symObjAddr: 0x5598, symBinAddr: 0x1000083FC, symSize: 0x34 }
  - { offsetInCU: 0x1BDE4, offset: 0x1BDE4, size: 0x8, addend: 0x0, symName: __ZNSt3__16vectorIPN6seneca11WorkstationENS_9allocatorIS3_EEE21_ConstructTransactionD1B8ue170006Ev, symObjAddr: 0x55CC, symBinAddr: 0x100008430, symSize: 0x2C }
  - { offsetInCU: 0x1BE0E, offset: 0x1BE0E, size: 0x8, addend: 0x0, symName: __ZNSt3__16vectorIPN6seneca11WorkstationENS_9allocatorIS3_EEE21_ConstructTransactionC2B8ue170006ERS6_m, symObjAddr: 0x55F8, symBinAddr: 0x10000845C, symSize: 0x44 }
  - { offsetInCU: 0x1BE56, offset: 0x1BE56, size: 0x8, addend: 0x0, symName: __ZNSt3__19allocatorIPN6seneca11WorkstationEE9constructB8ue170006IS3_JS3_EEEvPT_DpOT0_, symObjAddr: 0x563C, symBinAddr: 0x1000084A0, symSize: 0x28 }
  - { offsetInCU: 0x1BEAC, offset: 0x1BEAC, size: 0x8, addend: 0x0, symName: __ZNSt3__16vectorIPN6seneca11WorkstationENS_9allocatorIS3_EEE21_ConstructTransactionD2B8ue170006Ev, symObjAddr: 0x5664, symBinAddr: 0x1000084C8, symSize: 0x20 }
  - { offsetInCU: 0x1BED6, offset: 0x1BED6, size: 0x8, addend: 0x0, symName: __ZNKSt3__16vectorIPN6seneca11WorkstationENS_9allocatorIS3_EEE11__recommendB8ue170006Em, symObjAddr: 0x5684, symBinAddr: 0x1000084E8, symSize: 0xB4 }
  - { offsetInCU: 0x1BF2B, offset: 0x1BF2B, size: 0x8, addend: 0x0, symName: __ZNSt3__114__split_bufferIPN6seneca11WorkstationERNS_9allocatorIS3_EEEC1EmmS6_, symObjAddr: 0x5738, symBinAddr: 0x10000859C, symSize: 0x44 }
  - { offsetInCU: 0x1BF81, offset: 0x1BF81, size: 0x8, addend: 0x0, symName: __ZNSt3__114__split_bufferIPN6seneca11WorkstationERNS_9allocatorIS3_EEED1Ev, symObjAddr: 0x588C, symBinAddr: 0x1000086F0, symSize: 0x2C }
  - { offsetInCU: 0x1BFAD, offset: 0x1BFAD, size: 0x8, addend: 0x0, symName: __ZNKSt3__16vectorIPN6seneca11WorkstationENS_9allocatorIS3_EEE8max_sizeEv, symObjAddr: 0x58B8, symBinAddr: 0x10000871C, symSize: 0x60 }
  - { offsetInCU: 0x1BFD5, offset: 0x1BFD5, size: 0x8, addend: 0x0, symName: __ZNKSt3__16vectorIPN6seneca11WorkstationENS_9allocatorIS3_EEE20__throw_length_errorB8ue170006Ev, symObjAddr: 0x5918, symBinAddr: 0x10000877C, symSize: 0x1C }
  - { offsetInCU: 0x1C005, offset: 0x1C005, size: 0x8, addend: 0x0, symName: __ZNSt3__116allocator_traitsINS_9allocatorIPN6seneca11WorkstationEEEE8max_sizeB8ue170006IS5_vEEmRKS5_, symObjAddr: 0x598C, symBinAddr: 0x1000087F0, symSize: 0x24 }
  - { offsetInCU: 0x1C033, offset: 0x1C033, size: 0x8, addend: 0x0, symName: __ZNKSt3__16vectorIPN6seneca11WorkstationENS_9allocatorIS3_EEE7__allocB8ue170006Ev, symObjAddr: 0x59B0, symBinAddr: 0x100008814, symSize: 0x28 }
  - { offsetInCU: 0x1C059, offset: 0x1C059, size: 0x8, addend: 0x0, symName: __ZNSt3__114numeric_limitsIlE3maxB8ue170006Ev, symObjAddr: 0x59D8, symBinAddr: 0x10000883C, symSize: 0x14 }
  - { offsetInCU: 0x1C077, offset: 0x1C077, size: 0x8, addend: 0x0, symName: __ZNKSt3__16__lessIvvEclB8ue170006ImmEEbRKT_RKT0_, symObjAddr: 0x5A40, symBinAddr: 0x1000088A4, symSize: 0x34 }
  - { offsetInCU: 0x1C0CB, offset: 0x1C0CB, size: 0x8, addend: 0x0, symName: __ZNKSt3__19allocatorIPN6seneca11WorkstationEE8max_sizeB8ue170006Ev, symObjAddr: 0x5A74, symBinAddr: 0x1000088D8, symSize: 0x14 }
  - { offsetInCU: 0x1C0F1, offset: 0x1C0F1, size: 0x8, addend: 0x0, symName: __ZNKSt3__117__compressed_pairIPPN6seneca11WorkstationENS_9allocatorIS3_EEE6secondB8ue170006Ev, symObjAddr: 0x5A88, symBinAddr: 0x1000088EC, symSize: 0x24 }
  - { offsetInCU: 0x1C117, offset: 0x1C117, size: 0x8, addend: 0x0, symName: __ZNKSt3__122__compressed_pair_elemINS_9allocatorIPN6seneca11WorkstationEEELi1ELb1EE5__getB8ue170006Ev, symObjAddr: 0x5AAC, symBinAddr: 0x100008910, symSize: 0x14 }
  - { offsetInCU: 0x1C13D, offset: 0x1C13D, size: 0x8, addend: 0x0, symName: __ZNSt3__123__libcpp_numeric_limitsIlLb1EE3maxB8ue170006Ev, symObjAddr: 0x5AC0, symBinAddr: 0x100008924, symSize: 0x8 }
  - { offsetInCU: 0x1C151, offset: 0x1C151, size: 0x8, addend: 0x0, symName: __ZNSt12length_errorC1B8ue170006EPKc, symObjAddr: 0x5B2C, symBinAddr: 0x100008990, symSize: 0x34 }
  - { offsetInCU: 0x1C189, offset: 0x1C189, size: 0x8, addend: 0x0, symName: __ZNSt12length_errorC2B8ue170006EPKc, symObjAddr: 0x5B60, symBinAddr: 0x1000089C4, symSize: 0x4C }
  - { offsetInCU: 0x1C1C1, offset: 0x1C1C1, size: 0x8, addend: 0x0, symName: __ZNSt3__114__split_bufferIPN6seneca11WorkstationERNS_9allocatorIS3_EEEC2EmmS6_, symObjAddr: 0x5C00, symBinAddr: 0x100008A64, symSize: 0xD4 }
  - { offsetInCU: 0x1C234, offset: 0x1C234, size: 0x8, addend: 0x0, symName: __ZNSt3__117__compressed_pairIPPN6seneca11WorkstationERNS_9allocatorIS3_EEEC1B8ue170006IDnS7_EEOT_OT0_, symObjAddr: 0x5CD4, symBinAddr: 0x100008B38, symSize: 0x3C }
  - { offsetInCU: 0x1C28C, offset: 0x1C28C, size: 0x8, addend: 0x0, symName: __ZNSt3__114__split_bufferIPN6seneca11WorkstationERNS_9allocatorIS3_EEE7__allocB8ue170006Ev, symObjAddr: 0x5D50, symBinAddr: 0x100008BB4, symSize: 0x28 }
  - { offsetInCU: 0x1C2B2, offset: 0x1C2B2, size: 0x8, addend: 0x0, symName: __ZNSt3__114__split_bufferIPN6seneca11WorkstationERNS_9allocatorIS3_EEE9__end_capB8ue170006Ev, symObjAddr: 0x5D78, symBinAddr: 0x100008BDC, symSize: 0x28 }
  - { offsetInCU: 0x1C2D8, offset: 0x1C2D8, size: 0x8, addend: 0x0, symName: __ZNSt3__117__compressed_pairIPPN6seneca11WorkstationERNS_9allocatorIS3_EEEC2B8ue170006IDnS7_EEOT_OT0_, symObjAddr: 0x5DA0, symBinAddr: 0x100008C04, symSize: 0x48 }
  - { offsetInCU: 0x1C330, offset: 0x1C330, size: 0x8, addend: 0x0, symName: __ZNSt3__122__compressed_pair_elemIRNS_9allocatorIPN6seneca11WorkstationEEELi1ELb0EEC2B8ue170006IS6_vEEOT_, symObjAddr: 0x5DE8, symBinAddr: 0x100008C4C, symSize: 0x20 }
  - { offsetInCU: 0x1C372, offset: 0x1C372, size: 0x8, addend: 0x0, symName: __ZNSt3__19allocatorIPN6seneca11WorkstationEE8allocateB8ue170006Em, symObjAddr: 0x5E08, symBinAddr: 0x100008C6C, symSize: 0x58 }
  - { offsetInCU: 0x1C3A6, offset: 0x1C3A6, size: 0x8, addend: 0x0, symName: __ZNSt3__117__compressed_pairIPPN6seneca11WorkstationERNS_9allocatorIS3_EEE6secondB8ue170006Ev, symObjAddr: 0x5F44, symBinAddr: 0x100008DA8, symSize: 0x28 }
  - { offsetInCU: 0x1C3CC, offset: 0x1C3CC, size: 0x8, addend: 0x0, symName: __ZNSt3__122__compressed_pair_elemIRNS_9allocatorIPN6seneca11WorkstationEEELi1ELb0EE5__getB8ue170006Ev, symObjAddr: 0x5F6C, symBinAddr: 0x100008DD0, symSize: 0x18 }
  - { offsetInCU: 0x1C3F2, offset: 0x1C3F2, size: 0x8, addend: 0x0, symName: __ZNSt3__117__compressed_pairIPPN6seneca11WorkstationERNS_9allocatorIS3_EEE5firstB8ue170006Ev, symObjAddr: 0x5F84, symBinAddr: 0x100008DE8, symSize: 0x24 }
  - { offsetInCU: 0x1C418, offset: 0x1C418, size: 0x8, addend: 0x0, symName: __ZNSt3__116reverse_iteratorIPPN6seneca11WorkstationEEC1B8ue170006ES4_, symObjAddr: 0x6020, symBinAddr: 0x100008E84, symSize: 0x34 }
  - { offsetInCU: 0x1C450, offset: 0x1C450, size: 0x8, addend: 0x0, symName: __ZNKSt3__116reverse_iteratorIPPN6seneca11WorkstationEE4baseB8ue170006Ev, symObjAddr: 0x6054, symBinAddr: 0x100008EB8, symSize: 0x18 }
  - { offsetInCU: 0x1C476, offset: 0x1C476, size: 0x8, addend: 0x0, symName: __ZNKSt3__16vectorIPN6seneca11WorkstationENS_9allocatorIS3_EEE14__annotate_newB8ue170006Em, symObjAddr: 0x60A8, symBinAddr: 0x100008F0C, symSize: 0xAC }
  - { offsetInCU: 0x1C4CF, offset: 0x1C4CF, size: 0x8, addend: 0x0, symName: __ZNKSt3__111__move_loopINS_17_ClassicAlgPolicyEEclB8ue170006INS_16reverse_iteratorIPPN6seneca11WorkstationEEES9_S9_EENS_4pairIT_T1_EESB_T0_SC_, symObjAddr: 0x6444, symBinAddr: 0x1000092A8, symSize: 0xA0 }
  - { offsetInCU: 0x1C53A, offset: 0x1C53A, size: 0x8, addend: 0x0, symName: __ZNSt3__18_IterOpsINS_17_ClassicAlgPolicyEE11__iter_moveB8ue170006IRNS_16reverse_iteratorIPPN6seneca11WorkstationEEEEENS_9enable_ifIXsr12is_referenceIDTdeclsr3stdE7declvalIRT_EEEEE5valueEDTclsr3stdE4movedeclsr3stdE7declvalISD_EEEEE4typeEOSC_, symObjAddr: 0x6678, symBinAddr: 0x1000094DC, symSize: 0x28 }
  - { offsetInCU: 0x1C566, offset: 0x1C566, size: 0x8, addend: 0x0, symName: __ZNKSt3__116reverse_iteratorIPPN6seneca11WorkstationEEdeB8ue170006Ev, symObjAddr: 0x66A0, symBinAddr: 0x100009504, symSize: 0x28 }
  - { offsetInCU: 0x1C59A, offset: 0x1C59A, size: 0x8, addend: 0x0, symName: __ZNSt3__116reverse_iteratorIPPN6seneca11WorkstationEEppB8ue170006Ev, symObjAddr: 0x66C8, symBinAddr: 0x10000952C, symSize: 0x20 }
  - { offsetInCU: 0x1C5C0, offset: 0x1C5C0, size: 0x8, addend: 0x0, symName: __ZNSt3__18_IterOpsINS_17_ClassicAlgPolicyEE25__validate_iter_referenceB8ue170006IRNS_16reverse_iteratorIPPN6seneca11WorkstationEEEEEvv, symObjAddr: 0x66E8, symBinAddr: 0x10000954C, symSize: 0x4 }
  - { offsetInCU: 0x1C5DE, offset: 0x1C5DE, size: 0x8, addend: 0x0, symName: __ZNSt3__118__unwrap_iter_implINS_16reverse_iteratorIPPN6seneca11WorkstationEEELb0EE8__unwrapB8ue170006ES6_, symObjAddr: 0x66EC, symBinAddr: 0x100009550, symSize: 0x24 }
  - { offsetInCU: 0x1C607, offset: 0x1C607, size: 0x8, addend: 0x0, symName: __ZNSt3__14pairINS_16reverse_iteratorIPPN6seneca11WorkstationEEES6_EC1B8ue170006IS6_S6_LPv0EEEOT_OT0_, symObjAddr: 0x6710, symBinAddr: 0x100009574, symSize: 0x3C }
  - { offsetInCU: 0x1C665, offset: 0x1C665, size: 0x8, addend: 0x0, symName: __ZNSt3__14pairINS_16reverse_iteratorIPPN6seneca11WorkstationEEES6_EC2B8ue170006IS6_S6_LPv0EEEOT_OT0_, symObjAddr: 0x674C, symBinAddr: 0x1000095B0, symSize: 0x34 }
  - { offsetInCU: 0x1C6C3, offset: 0x1C6C3, size: 0x8, addend: 0x0, symName: __ZNSt3__118__unwrap_iter_implINS_16reverse_iteratorIPPN6seneca11WorkstationEEELb0EE8__rewrapB8ue170006ES6_S6_, symObjAddr: 0x6780, symBinAddr: 0x1000095E4, symSize: 0x2C }
  - { offsetInCU: 0x1C6F0, offset: 0x1C6F0, size: 0x8, addend: 0x0, symName: __ZNSt3__116reverse_iteratorIPPN6seneca11WorkstationEEC2B8ue170006ES4_, symObjAddr: 0x67AC, symBinAddr: 0x100009610, symSize: 0x28 }
  - { offsetInCU: 0x1C728, offset: 0x1C728, size: 0x8, addend: 0x0, symName: __ZNSt3__114__split_bufferIPN6seneca11WorkstationERNS_9allocatorIS3_EEED2Ev, symObjAddr: 0x67D4, symBinAddr: 0x100009638, symSize: 0x8C }
  - { offsetInCU: 0x1C754, offset: 0x1C754, size: 0x8, addend: 0x0, symName: __ZNSt3__114__split_bufferIPN6seneca11WorkstationERNS_9allocatorIS3_EEE5clearB8ue170006Ev, symObjAddr: 0x6860, symBinAddr: 0x1000096C4, symSize: 0x28 }
  - { offsetInCU: 0x1C77A, offset: 0x1C77A, size: 0x8, addend: 0x0, symName: __ZNKSt3__114__split_bufferIPN6seneca11WorkstationERNS_9allocatorIS3_EEE8capacityB8ue170006Ev, symObjAddr: 0x6888, symBinAddr: 0x1000096EC, symSize: 0x40 }
  - { offsetInCU: 0x1C7A0, offset: 0x1C7A0, size: 0x8, addend: 0x0, symName: __ZNSt3__114__split_bufferIPN6seneca11WorkstationERNS_9allocatorIS3_EEE17__destruct_at_endB8ue170006EPS3_, symObjAddr: 0x68C8, symBinAddr: 0x10000972C, symSize: 0x2C }
  - { offsetInCU: 0x1C7D4, offset: 0x1C7D4, size: 0x8, addend: 0x0, symName: __ZNSt3__114__split_bufferIPN6seneca11WorkstationERNS_9allocatorIS3_EEE17__destruct_at_endB8ue170006EPS3_NS_17integral_constantIbLb0EEE, symObjAddr: 0x68F4, symBinAddr: 0x100009758, symSize: 0x80 }
  - { offsetInCU: 0x1C814, offset: 0x1C814, size: 0x8, addend: 0x0, symName: __ZNKSt3__114__split_bufferIPN6seneca11WorkstationERNS_9allocatorIS3_EEE9__end_capB8ue170006Ev, symObjAddr: 0x6974, symBinAddr: 0x1000097D8, symSize: 0x28 }
  - { offsetInCU: 0x1C83A, offset: 0x1C83A, size: 0x8, addend: 0x0, symName: __ZNKSt3__117__compressed_pairIPPN6seneca11WorkstationERNS_9allocatorIS3_EEE5firstB8ue170006Ev, symObjAddr: 0x699C, symBinAddr: 0x100009800, symSize: 0x24 }
  - { offsetInCU: 0x1C860, offset: 0x1C860, size: 0x8, addend: 0x0, symName: __ZN6seneca11WorkstationC2ERKNSt3__112basic_stringIcNS1_11char_traitsIcEENS1_9allocatorIcEEEE, symObjAddr: 0x69C0, symBinAddr: 0x100009824, symSize: 0x44 }
  - { offsetInCU: 0x1C898, offset: 0x1C898, size: 0x8, addend: 0x0, symName: __ZNSt3__15dequeIN6seneca13CustomerOrderENS_9allocatorIS2_EEEC1B8ue170006Ev, symObjAddr: 0x6A04, symBinAddr: 0x100009868, symSize: 0x2C }
  - { offsetInCU: 0x1C8C2, offset: 0x1C8C2, size: 0x8, addend: 0x0, symName: __ZNSt3__15dequeIN6seneca13CustomerOrderENS_9allocatorIS2_EEEC2B8ue170006Ev, symObjAddr: 0x6A30, symBinAddr: 0x100009894, symSize: 0x5C }
  - { offsetInCU: 0x1C8EC, offset: 0x1C8EC, size: 0x8, addend: 0x0, symName: __ZNSt3__114__split_bufferIPN6seneca13CustomerOrderENS_9allocatorIS3_EEEC1B8ue170006Ev, symObjAddr: 0x6A8C, symBinAddr: 0x1000098F0, symSize: 0x2C }
  - { offsetInCU: 0x1C91C, offset: 0x1C91C, size: 0x8, addend: 0x0, symName: __ZNSt3__117__compressed_pairImNS_9allocatorIN6seneca13CustomerOrderEEEEC1B8ue170006IiNS_18__default_init_tagEEEOT_OT0_, symObjAddr: 0x6AB8, symBinAddr: 0x10000991C, symSize: 0x3C }
  - { offsetInCU: 0x1C974, offset: 0x1C974, size: 0x8, addend: 0x0, symName: __ZNSt3__114__split_bufferIPN6seneca13CustomerOrderENS_9allocatorIS3_EEEC2B8ue170006Ev, symObjAddr: 0x6AF4, symBinAddr: 0x100009958, symSize: 0x50 }
  - { offsetInCU: 0x1C99E, offset: 0x1C99E, size: 0x8, addend: 0x0, symName: __ZNSt3__117__compressed_pairIPPN6seneca13CustomerOrderENS_9allocatorIS3_EEEC1B8ue170006IDnNS_18__default_init_tagEEEOT_OT0_, symObjAddr: 0x6B44, symBinAddr: 0x1000099A8, symSize: 0x3C }
  - { offsetInCU: 0x1C9F6, offset: 0x1C9F6, size: 0x8, addend: 0x0, symName: __ZNSt3__117__compressed_pairIPPN6seneca13CustomerOrderENS_9allocatorIS3_EEEC2B8ue170006IDnNS_18__default_init_tagEEEOT_OT0_, symObjAddr: 0x6B80, symBinAddr: 0x1000099E4, symSize: 0x40 }
  - { offsetInCU: 0x1CA4E, offset: 0x1CA4E, size: 0x8, addend: 0x0, symName: __ZNSt3__122__compressed_pair_elemIPPN6seneca13CustomerOrderELi0ELb0EEC2B8ue170006IDnvEEOT_, symObjAddr: 0x6BC0, symBinAddr: 0x100009A24, symSize: 0x1C }
  - { offsetInCU: 0x1CA90, offset: 0x1CA90, size: 0x8, addend: 0x0, symName: __ZNSt3__122__compressed_pair_elemINS_9allocatorIPN6seneca13CustomerOrderEEELi1ELb1EEC2B8ue170006ENS_18__default_init_tagE, symObjAddr: 0x6BDC, symBinAddr: 0x100009A40, symSize: 0x2C }
  - { offsetInCU: 0x1CAC4, offset: 0x1CAC4, size: 0x8, addend: 0x0, symName: __ZNSt3__19allocatorIPN6seneca13CustomerOrderEEC2B8ue170006Ev, symObjAddr: 0x6C08, symBinAddr: 0x100009A6C, symSize: 0x2C }
  - { offsetInCU: 0x1CAEE, offset: 0x1CAEE, size: 0x8, addend: 0x0, symName: __ZNSt3__116__non_trivial_ifILb1ENS_9allocatorIPN6seneca13CustomerOrderEEEEC2B8ue170006Ev, symObjAddr: 0x6C34, symBinAddr: 0x100009A98, symSize: 0x14 }
  - { offsetInCU: 0x1CB18, offset: 0x1CB18, size: 0x8, addend: 0x0, symName: __ZNSt3__117__compressed_pairImNS_9allocatorIN6seneca13CustomerOrderEEEEC2B8ue170006IiNS_18__default_init_tagEEEOT_OT0_, symObjAddr: 0x6C48, symBinAddr: 0x100009AAC, symSize: 0x40 }
  - { offsetInCU: 0x1CB70, offset: 0x1CB70, size: 0x8, addend: 0x0, symName: __ZNSt3__122__compressed_pair_elemImLi0ELb0EEC2B8ue170006IivEEOT_, symObjAddr: 0x6C88, symBinAddr: 0x100009AEC, symSize: 0x24 }
  - { offsetInCU: 0x1CBB2, offset: 0x1CBB2, size: 0x8, addend: 0x0, symName: __ZNSt3__114basic_ifstreamIcNS_11char_traitsIcEEED2Ev, symObjAddr: 0x6CAC, symBinAddr: 0x100009B10, symSize: 0x64 }
  - { offsetInCU: 0x1CBEC, offset: 0x1CBEC, size: 0x8, addend: 0x0, symName: __ZTv0_n24_NSt3__114basic_ifstreamIcNS_11char_traitsIcEEED1Ev, symObjAddr: 0x6D10, symBinAddr: 0x100009B74, symSize: 0x28 }
  - { offsetInCU: 0x1CC03, offset: 0x1CC03, size: 0x8, addend: 0x0, symName: __ZNSt3__16vectorIPN6seneca11WorkstationENS_9allocatorIS3_EEE11__make_iterB8ue170006EPS3_, symObjAddr: 0x6D38, symBinAddr: 0x100009B9C, symSize: 0x30 }
  - { offsetInCU: 0x1CC38, offset: 0x1CC38, size: 0x8, addend: 0x0, symName: __ZNSt3__111__wrap_iterIPPN6seneca11WorkstationEEC1B8ue170006ES4_, symObjAddr: 0x6D68, symBinAddr: 0x100009BCC, symSize: 0x34 }
  - { offsetInCU: 0x1CC70, offset: 0x1CC70, size: 0x8, addend: 0x0, symName: __ZNSt3__111__wrap_iterIPPN6seneca11WorkstationEEC2B8ue170006ES4_, symObjAddr: 0x6D9C, symBinAddr: 0x100009C00, symSize: 0x20 }
  - { offsetInCU: 0x1CCA8, offset: 0x1CCA8, size: 0x8, addend: 0x0, symName: __ZNKSt3__112basic_stringIcNS_11char_traitsIcEENS_9allocatorIcEEE4dataB8ue170006Ev, symObjAddr: 0x6DBC, symBinAddr: 0x100009C20, symSize: 0x28 }
  - { offsetInCU: 0x1CCCE, offset: 0x1CCCE, size: 0x8, addend: 0x0, symName: __ZNKSt3__112basic_stringIcNS_11char_traitsIcEENS_9allocatorIcEEE13__get_pointerB8ue170006Ev, symObjAddr: 0x6DF8, symBinAddr: 0x100009C5C, symSize: 0x54 }
  - { offsetInCU: 0x1CCF4, offset: 0x1CCF4, size: 0x8, addend: 0x0, symName: __ZNKSt3__112basic_stringIcNS_11char_traitsIcEENS_9allocatorIcEEE18__get_long_pointerB8ue170006Ev, symObjAddr: 0x6E4C, symBinAddr: 0x100009CB0, symSize: 0x28 }
  - { offsetInCU: 0x1CD1A, offset: 0x1CD1A, size: 0x8, addend: 0x0, symName: __ZNKSt3__112basic_stringIcNS_11char_traitsIcEENS_9allocatorIcEEE19__get_short_pointerB8ue170006Ev, symObjAddr: 0x6E74, symBinAddr: 0x100009CD8, symSize: 0x28 }
  - { offsetInCU: 0x1CD40, offset: 0x1CD40, size: 0x8, addend: 0x0, symName: __ZNSt3__114pointer_traitsIPKcE10pointer_toB8ue170006ERS1_, symObjAddr: 0x6E9C, symBinAddr: 0x100009D00, symSize: 0x14 }
  - { offsetInCU: 0x1CD63, offset: 0x1CD63, size: 0x8, addend: 0x0, symName: __ZNSt3__16vectorIN6seneca13CustomerOrderENS_9allocatorIS2_EEE9push_backB8ue170006EOS2_, symObjAddr: 0x6EB0, symBinAddr: 0x100009D14, symSize: 0x6C }
  - { offsetInCU: 0x1CD9A, offset: 0x1CD9A, size: 0x8, addend: 0x0, symName: __ZNSt3__16vectorIN6seneca13CustomerOrderENS_9allocatorIS2_EEE9__end_capB8ue170006Ev, symObjAddr: 0x6F1C, symBinAddr: 0x100009D80, symSize: 0x28 }
  - { offsetInCU: 0x1CDC0, offset: 0x1CDC0, size: 0x8, addend: 0x0, symName: __ZNSt3__16vectorIN6seneca13CustomerOrderENS_9allocatorIS2_EEE22__construct_one_at_endB8ue170006IJS2_EEEvDpOT_, symObjAddr: 0x6F44, symBinAddr: 0x100009DA8, symSize: 0x90 }
  - { offsetInCU: 0x1CE0F, offset: 0x1CE0F, size: 0x8, addend: 0x0, symName: __ZNSt3__16vectorIN6seneca13CustomerOrderENS_9allocatorIS2_EEE21__push_back_slow_pathIS2_EEvOT_, symObjAddr: 0x6FD4, symBinAddr: 0x100009E38, symSize: 0xD8 }
  - { offsetInCU: 0x1CE6D, offset: 0x1CE6D, size: 0x8, addend: 0x0, symName: __ZNSt3__117__compressed_pairIPN6seneca13CustomerOrderENS_9allocatorIS2_EEE5firstB8ue170006Ev, symObjAddr: 0x70AC, symBinAddr: 0x100009F10, symSize: 0x24 }
  - { offsetInCU: 0x1CE93, offset: 0x1CE93, size: 0x8, addend: 0x0, symName: __ZNSt3__122__compressed_pair_elemIPN6seneca13CustomerOrderELi0ELb0EE5__getB8ue170006Ev, symObjAddr: 0x70D0, symBinAddr: 0x100009F34, symSize: 0x14 }
  - { offsetInCU: 0x1CED2, offset: 0x1CED2, size: 0x8, addend: 0x0, symName: __ZNSt3__16vectorIN6seneca13CustomerOrderENS_9allocatorIS2_EEE21_ConstructTransactionC1B8ue170006ERS5_m, symObjAddr: 0x70E4, symBinAddr: 0x100009F48, symSize: 0x3C }
  - { offsetInCU: 0x1CF1A, offset: 0x1CF1A, size: 0x8, addend: 0x0, symName: __ZNSt3__116allocator_traitsINS_9allocatorIN6seneca13CustomerOrderEEEE9constructB8ue170006IS3_JS3_EvEEvRS4_PT_DpOT0_, symObjAddr: 0x7120, symBinAddr: 0x100009F84, symSize: 0x34 }
  - { offsetInCU: 0x1CF71, offset: 0x1CF71, size: 0x8, addend: 0x0, symName: __ZNSt3__16vectorIN6seneca13CustomerOrderENS_9allocatorIS2_EEE21_ConstructTransactionD1B8ue170006Ev, symObjAddr: 0x7154, symBinAddr: 0x100009FB8, symSize: 0x2C }
  - { offsetInCU: 0x1CF9B, offset: 0x1CF9B, size: 0x8, addend: 0x0, symName: __ZNSt3__16vectorIN6seneca13CustomerOrderENS_9allocatorIS2_EEE21_ConstructTransactionC2B8ue170006ERS5_m, symObjAddr: 0x7180, symBinAddr: 0x100009FE4, symSize: 0x44 }
  - { offsetInCU: 0x1CFE3, offset: 0x1CFE3, size: 0x8, addend: 0x0, symName: __ZNSt3__19allocatorIN6seneca13CustomerOrderEE9constructB8ue170006IS2_JS2_EEEvPT_DpOT0_, symObjAddr: 0x71C4, symBinAddr: 0x10000A028, symSize: 0x30 }
  - { offsetInCU: 0x1D039, offset: 0x1D039, size: 0x8, addend: 0x0, symName: __ZNSt3__16vectorIN6seneca13CustomerOrderENS_9allocatorIS2_EEE21_ConstructTransactionD2B8ue170006Ev, symObjAddr: 0x71F4, symBinAddr: 0x10000A058, symSize: 0x20 }
  - { offsetInCU: 0x1D063, offset: 0x1D063, size: 0x8, addend: 0x0, symName: __ZNKSt3__16vectorIN6seneca13CustomerOrderENS_9allocatorIS2_EEE11__recommendB8ue170006Em, symObjAddr: 0x7214, symBinAddr: 0x10000A078, symSize: 0xB4 }
  - { offsetInCU: 0x1D0B8, offset: 0x1D0B8, size: 0x8, addend: 0x0, symName: __ZNSt3__114__split_bufferIN6seneca13CustomerOrderERNS_9allocatorIS2_EEEC1EmmS5_, symObjAddr: 0x72C8, symBinAddr: 0x10000A12C, symSize: 0x44 }
  - { offsetInCU: 0x1D10E, offset: 0x1D10E, size: 0x8, addend: 0x0, symName: __ZNSt3__114__split_bufferIN6seneca13CustomerOrderERNS_9allocatorIS2_EEED1Ev, symObjAddr: 0x741C, symBinAddr: 0x10000A280, symSize: 0x2C }
  - { offsetInCU: 0x1D13A, offset: 0x1D13A, size: 0x8, addend: 0x0, symName: __ZNKSt3__16vectorIN6seneca13CustomerOrderENS_9allocatorIS2_EEE8max_sizeEv, symObjAddr: 0x7448, symBinAddr: 0x10000A2AC, symSize: 0x60 }
  - { offsetInCU: 0x1D162, offset: 0x1D162, size: 0x8, addend: 0x0, symName: __ZNKSt3__16vectorIN6seneca13CustomerOrderENS_9allocatorIS2_EEE20__throw_length_errorB8ue170006Ev, symObjAddr: 0x74A8, symBinAddr: 0x10000A30C, symSize: 0x1C }
  - { offsetInCU: 0x1D192, offset: 0x1D192, size: 0x8, addend: 0x0, symName: __ZNSt3__116allocator_traitsINS_9allocatorIN6seneca13CustomerOrderEEEE8max_sizeB8ue170006IS4_vEEmRKS4_, symObjAddr: 0x74C4, symBinAddr: 0x10000A328, symSize: 0x24 }
  - { offsetInCU: 0x1D1C0, offset: 0x1D1C0, size: 0x8, addend: 0x0, symName: __ZNKSt3__16vectorIN6seneca13CustomerOrderENS_9allocatorIS2_EEE7__allocB8ue170006Ev, symObjAddr: 0x74E8, symBinAddr: 0x10000A34C, symSize: 0x28 }
  - { offsetInCU: 0x1D1E6, offset: 0x1D1E6, size: 0x8, addend: 0x0, symName: __ZNKSt3__19allocatorIN6seneca13CustomerOrderEE8max_sizeB8ue170006Ev, symObjAddr: 0x7510, symBinAddr: 0x10000A374, symSize: 0x14 }
  - { offsetInCU: 0x1D20C, offset: 0x1D20C, size: 0x8, addend: 0x0, symName: __ZNKSt3__117__compressed_pairIPN6seneca13CustomerOrderENS_9allocatorIS2_EEE6secondB8ue170006Ev, symObjAddr: 0x7524, symBinAddr: 0x10000A388, symSize: 0x24 }
  - { offsetInCU: 0x1D232, offset: 0x1D232, size: 0x8, addend: 0x0, symName: __ZNKSt3__122__compressed_pair_elemINS_9allocatorIN6seneca13CustomerOrderEEELi1ELb1EE5__getB8ue170006Ev, symObjAddr: 0x7548, symBinAddr: 0x10000A3AC, symSize: 0x14 }
  - { offsetInCU: 0x1D258, offset: 0x1D258, size: 0x8, addend: 0x0, symName: __ZNSt3__114__split_bufferIN6seneca13CustomerOrderERNS_9allocatorIS2_EEEC2EmmS5_, symObjAddr: 0x755C, symBinAddr: 0x10000A3C0, symSize: 0xD4 }
  - { offsetInCU: 0x1D2CB, offset: 0x1D2CB, size: 0x8, addend: 0x0, symName: __ZNSt3__117__compressed_pairIPN6seneca13CustomerOrderERNS_9allocatorIS2_EEEC1B8ue170006IDnS6_EEOT_OT0_, symObjAddr: 0x7630, symBinAddr: 0x10000A494, symSize: 0x3C }
  - { offsetInCU: 0x1D323, offset: 0x1D323, size: 0x8, addend: 0x0, symName: __ZNSt3__114__split_bufferIN6seneca13CustomerOrderERNS_9allocatorIS2_EEE7__allocB8ue170006Ev, symObjAddr: 0x76AC, symBinAddr: 0x10000A510, symSize: 0x28 }
  - { offsetInCU: 0x1D349, offset: 0x1D349, size: 0x8, addend: 0x0, symName: __ZNSt3__114__split_bufferIN6seneca13CustomerOrderERNS_9allocatorIS2_EEE9__end_capB8ue170006Ev, symObjAddr: 0x76D4, symBinAddr: 0x10000A538, symSize: 0x28 }
  - { offsetInCU: 0x1D36F, offset: 0x1D36F, size: 0x8, addend: 0x0, symName: __ZNSt3__117__compressed_pairIPN6seneca13CustomerOrderERNS_9allocatorIS2_EEEC2B8ue170006IDnS6_EEOT_OT0_, symObjAddr: 0x76FC, symBinAddr: 0x10000A560, symSize: 0x48 }
  - { offsetInCU: 0x1D3C7, offset: 0x1D3C7, size: 0x8, addend: 0x0, symName: __ZNSt3__122__compressed_pair_elemIRNS_9allocatorIN6seneca13CustomerOrderEEELi1ELb0EEC2B8ue170006IS5_vEEOT_, symObjAddr: 0x7744, symBinAddr: 0x10000A5A8, symSize: 0x20 }
  - { offsetInCU: 0x1D409, offset: 0x1D409, size: 0x8, addend: 0x0, symName: __ZNSt3__19allocatorIN6seneca13CustomerOrderEE8allocateB8ue170006Em, symObjAddr: 0x7764, symBinAddr: 0x10000A5C8, symSize: 0x58 }
  - { offsetInCU: 0x1D43D, offset: 0x1D43D, size: 0x8, addend: 0x0, symName: __ZNSt3__117__compressed_pairIPN6seneca13CustomerOrderERNS_9allocatorIS2_EEE6secondB8ue170006Ev, symObjAddr: 0x77BC, symBinAddr: 0x10000A620, symSize: 0x28 }
  - { offsetInCU: 0x1D463, offset: 0x1D463, size: 0x8, addend: 0x0, symName: __ZNSt3__122__compressed_pair_elemIRNS_9allocatorIN6seneca13CustomerOrderEEELi1ELb0EE5__getB8ue170006Ev, symObjAddr: 0x77E4, symBinAddr: 0x10000A648, symSize: 0x18 }
  - { offsetInCU: 0x1D489, offset: 0x1D489, size: 0x8, addend: 0x0, symName: __ZNSt3__117__compressed_pairIPN6seneca13CustomerOrderERNS_9allocatorIS2_EEE5firstB8ue170006Ev, symObjAddr: 0x77FC, symBinAddr: 0x10000A660, symSize: 0x24 }
  - { offsetInCU: 0x1D4AF, offset: 0x1D4AF, size: 0x8, addend: 0x0, symName: __ZNSt3__116reverse_iteratorIPN6seneca13CustomerOrderEEC1B8ue170006ES3_, symObjAddr: 0x794C, symBinAddr: 0x10000A7B0, symSize: 0x34 }
  - { offsetInCU: 0x1D4E7, offset: 0x1D4E7, size: 0x8, addend: 0x0, symName: __ZNKSt3__116reverse_iteratorIPN6seneca13CustomerOrderEE4baseB8ue170006Ev, symObjAddr: 0x7980, symBinAddr: 0x10000A7E4, symSize: 0x18 }
  - { offsetInCU: 0x1D50D, offset: 0x1D50D, size: 0x8, addend: 0x0, symName: __ZNKSt3__16vectorIN6seneca13CustomerOrderENS_9allocatorIS2_EEE14__annotate_newB8ue170006Em, symObjAddr: 0x79D4, symBinAddr: 0x10000A838, symSize: 0xAC }
  - { offsetInCU: 0x1D542, offset: 0x1D542, size: 0x8, addend: 0x0, symName: __ZNSt3__129_AllocatorDestroyRangeReverseINS_9allocatorIN6seneca13CustomerOrderEEENS_16reverse_iteratorIPS3_EEEC1B8ue170006ERS4_RS7_SA_, symObjAddr: 0x7ACC, symBinAddr: 0x10000A930, symSize: 0x44 }
  - { offsetInCU: 0x1D599, offset: 0x1D599, size: 0x8, addend: 0x0, symName: __ZNKSt3__116reverse_iteratorIPN6seneca13CustomerOrderEEdeB8ue170006Ev, symObjAddr: 0x7B7C, symBinAddr: 0x10000A9E0, symSize: 0x28 }
  - { offsetInCU: 0x1D5CD, offset: 0x1D5CD, size: 0x8, addend: 0x0, symName: __ZNSt3__116reverse_iteratorIPN6seneca13CustomerOrderEEppB8ue170006Ev, symObjAddr: 0x7BA4, symBinAddr: 0x10000AA08, symSize: 0x20 }
  - { offsetInCU: 0x1D5F3, offset: 0x1D5F3, size: 0x8, addend: 0x0, symName: __ZNSt3__128__exception_guard_exceptionsINS_29_AllocatorDestroyRangeReverseINS_9allocatorIN6seneca13CustomerOrderEEENS_16reverse_iteratorIPS4_EEEEE10__completeB8ue170006Ev, symObjAddr: 0x7BC4, symBinAddr: 0x10000AA28, symSize: 0x1C }
  - { offsetInCU: 0x1D619, offset: 0x1D619, size: 0x8, addend: 0x0, symName: __ZNSt3__128__exception_guard_exceptionsINS_29_AllocatorDestroyRangeReverseINS_9allocatorIN6seneca13CustomerOrderEEENS_16reverse_iteratorIPS4_EEEEED1B8ue170006Ev, symObjAddr: 0x7BE0, symBinAddr: 0x10000AA44, symSize: 0x2C }
  - { offsetInCU: 0x1D643, offset: 0x1D643, size: 0x8, addend: 0x0, symName: __ZNSt3__128__exception_guard_exceptionsINS_29_AllocatorDestroyRangeReverseINS_9allocatorIN6seneca13CustomerOrderEEENS_16reverse_iteratorIPS4_EEEEEC1B8ue170006ES9_, symObjAddr: 0x7C0C, symBinAddr: 0x10000AA70, symSize: 0x34 }
  - { offsetInCU: 0x1D67C, offset: 0x1D67C, size: 0x8, addend: 0x0, symName: __ZNSt3__128__exception_guard_exceptionsINS_29_AllocatorDestroyRangeReverseINS_9allocatorIN6seneca13CustomerOrderEEENS_16reverse_iteratorIPS4_EEEEEC2B8ue170006ES9_, symObjAddr: 0x7C40, symBinAddr: 0x10000AAA4, symSize: 0x30 }
  - { offsetInCU: 0x1D6B5, offset: 0x1D6B5, size: 0x8, addend: 0x0, symName: __ZNSt3__129_AllocatorDestroyRangeReverseINS_9allocatorIN6seneca13CustomerOrderEEENS_16reverse_iteratorIPS3_EEEC2B8ue170006ERS4_RS7_SA_, symObjAddr: 0x7C70, symBinAddr: 0x10000AAD4, symSize: 0x38 }
  - { offsetInCU: 0x1D711, offset: 0x1D711, size: 0x8, addend: 0x0, symName: __ZNSt3__119__to_address_helperINS_16reverse_iteratorIPN6seneca13CustomerOrderEEEvE6__callB8ue170006ERKS5_, symObjAddr: 0x7CA8, symBinAddr: 0x10000AB0C, symSize: 0x38 }
  - { offsetInCU: 0x1D734, offset: 0x1D734, size: 0x8, addend: 0x0, symName: __ZNKSt3__116reverse_iteratorIPN6seneca13CustomerOrderEEptB8ue170006Ev, symObjAddr: 0x7CE0, symBinAddr: 0x10000AB44, symSize: 0x24 }
  - { offsetInCU: 0x1D75A, offset: 0x1D75A, size: 0x8, addend: 0x0, symName: __ZNSt3__128__exception_guard_exceptionsINS_29_AllocatorDestroyRangeReverseINS_9allocatorIN6seneca13CustomerOrderEEENS_16reverse_iteratorIPS4_EEEEED2B8ue170006Ev, symObjAddr: 0x7D04, symBinAddr: 0x10000AB68, symSize: 0x50 }
  - { offsetInCU: 0x1D784, offset: 0x1D784, size: 0x8, addend: 0x0, symName: __ZNKSt3__129_AllocatorDestroyRangeReverseINS_9allocatorIN6seneca13CustomerOrderEEENS_16reverse_iteratorIPS3_EEEclB8ue170006Ev, symObjAddr: 0x7D54, symBinAddr: 0x10000ABB8, symSize: 0xB4 }
  - { offsetInCU: 0x1D7AB, offset: 0x1D7AB, size: 0x8, addend: 0x0, symName: __ZNSt3__116reverse_iteratorINS0_IPN6seneca13CustomerOrderEEEEC1B8ue170006ES4_, symObjAddr: 0x7E78, symBinAddr: 0x10000ACDC, symSize: 0x3C }
  - { offsetInCU: 0x1D7E3, offset: 0x1D7E3, size: 0x8, addend: 0x0, symName: __ZNSt3__116reverse_iteratorINS0_IPN6seneca13CustomerOrderEEEEppB8ue170006Ev, symObjAddr: 0x7F38, symBinAddr: 0x10000AD9C, symSize: 0x30 }
  - { offsetInCU: 0x1D809, offset: 0x1D809, size: 0x8, addend: 0x0, symName: __ZNKSt3__116reverse_iteratorINS0_IPN6seneca13CustomerOrderEEEE4baseB8ue170006Ev, symObjAddr: 0x7F68, symBinAddr: 0x10000ADCC, symSize: 0x24 }
  - { offsetInCU: 0x1D834, offset: 0x1D834, size: 0x8, addend: 0x0, symName: __ZNSt3__119__to_address_helperINS_16reverse_iteratorINS1_IPN6seneca13CustomerOrderEEEEEvE6__callB8ue170006ERKS6_, symObjAddr: 0x7F8C, symBinAddr: 0x10000ADF0, symSize: 0x38 }
  - { offsetInCU: 0x1D857, offset: 0x1D857, size: 0x8, addend: 0x0, symName: __ZNKSt3__116reverse_iteratorINS0_IPN6seneca13CustomerOrderEEEEptB8ue170006Ev, symObjAddr: 0x7FC4, symBinAddr: 0x10000AE28, symSize: 0x24 }
  - { offsetInCU: 0x1D87D, offset: 0x1D87D, size: 0x8, addend: 0x0, symName: __ZNKSt3__116reverse_iteratorINS0_IPN6seneca13CustomerOrderEEEEdeB8ue170006Ev, symObjAddr: 0x7FE8, symBinAddr: 0x10000AE4C, symSize: 0x34 }
  - { offsetInCU: 0x1D8B1, offset: 0x1D8B1, size: 0x8, addend: 0x0, symName: __ZNSt3__116reverse_iteratorIPN6seneca13CustomerOrderEEmmB8ue170006Ev, symObjAddr: 0x801C, symBinAddr: 0x10000AE80, symSize: 0x20 }
  - { offsetInCU: 0x1D8D7, offset: 0x1D8D7, size: 0x8, addend: 0x0, symName: __ZNSt3__116reverse_iteratorINS0_IPN6seneca13CustomerOrderEEEEC2B8ue170006ES4_, symObjAddr: 0x803C, symBinAddr: 0x10000AEA0, symSize: 0x2C }
  - { offsetInCU: 0x1D90F, offset: 0x1D90F, size: 0x8, addend: 0x0, symName: __ZNSt3__116reverse_iteratorIPN6seneca13CustomerOrderEEC2B8ue170006ES3_, symObjAddr: 0x8068, symBinAddr: 0x10000AECC, symSize: 0x28 }
  - { offsetInCU: 0x1D947, offset: 0x1D947, size: 0x8, addend: 0x0, symName: __ZNSt3__114__split_bufferIN6seneca13CustomerOrderERNS_9allocatorIS2_EEED2Ev, symObjAddr: 0x8090, symBinAddr: 0x10000AEF4, symSize: 0x8C }
  - { offsetInCU: 0x1D973, offset: 0x1D973, size: 0x8, addend: 0x0, symName: __ZNSt3__114__split_bufferIN6seneca13CustomerOrderERNS_9allocatorIS2_EEE5clearB8ue170006Ev, symObjAddr: 0x811C, symBinAddr: 0x10000AF80, symSize: 0x28 }
  - { offsetInCU: 0x1D999, offset: 0x1D999, size: 0x8, addend: 0x0, symName: __ZNKSt3__114__split_bufferIN6seneca13CustomerOrderERNS_9allocatorIS2_EEE8capacityB8ue170006Ev, symObjAddr: 0x8144, symBinAddr: 0x10000AFA8, symSize: 0x40 }
  - { offsetInCU: 0x1D9BF, offset: 0x1D9BF, size: 0x8, addend: 0x0, symName: __ZNSt3__114__split_bufferIN6seneca13CustomerOrderERNS_9allocatorIS2_EEE17__destruct_at_endB8ue170006EPS2_, symObjAddr: 0x8184, symBinAddr: 0x10000AFE8, symSize: 0x2C }
  - { offsetInCU: 0x1D9F3, offset: 0x1D9F3, size: 0x8, addend: 0x0, symName: __ZNSt3__114__split_bufferIN6seneca13CustomerOrderERNS_9allocatorIS2_EEE17__destruct_at_endB8ue170006EPS2_NS_17integral_constantIbLb0EEE, symObjAddr: 0x81B0, symBinAddr: 0x10000B014, symSize: 0x80 }
  - { offsetInCU: 0x1DA33, offset: 0x1DA33, size: 0x8, addend: 0x0, symName: __ZNKSt3__114__split_bufferIN6seneca13CustomerOrderERNS_9allocatorIS2_EEE9__end_capB8ue170006Ev, symObjAddr: 0x8230, symBinAddr: 0x10000B094, symSize: 0x28 }
  - { offsetInCU: 0x1DA59, offset: 0x1DA59, size: 0x8, addend: 0x0, symName: __ZNKSt3__117__compressed_pairIPN6seneca13CustomerOrderERNS_9allocatorIS2_EEE5firstB8ue170006Ev, symObjAddr: 0x8258, symBinAddr: 0x10000B0BC, symSize: 0x24 }
  - { offsetInCU: 0x1DA7F, offset: 0x1DA7F, size: 0x8, addend: 0x0, symName: __ZNSt3__16vectorIN6seneca13CustomerOrderENS_9allocatorIS2_EEE11__make_iterB8ue170006EPS2_, symObjAddr: 0x827C, symBinAddr: 0x10000B0E0, symSize: 0x30 }
  - { offsetInCU: 0x1DAB4, offset: 0x1DAB4, size: 0x8, addend: 0x0, symName: __ZNSt3__111__wrap_iterIPN6seneca13CustomerOrderEEC1B8ue170006ES3_, symObjAddr: 0x82AC, symBinAddr: 0x10000B110, symSize: 0x34 }
  - { offsetInCU: 0x1DAEC, offset: 0x1DAEC, size: 0x8, addend: 0x0, symName: __ZNSt3__111__wrap_iterIPN6seneca13CustomerOrderEEC2B8ue170006ES3_, symObjAddr: 0x82E0, symBinAddr: 0x10000B144, symSize: 0x20 }
  - { offsetInCU: 0x1DB24, offset: 0x1DB24, size: 0x8, addend: 0x0, symName: __ZNKSt3__15dequeIN6seneca13CustomerOrderENS_9allocatorIS2_EEE12__back_spareB8ue170006Ev, symObjAddr: 0x8300, symBinAddr: 0x10000B164, symSize: 0x54 }
  - { offsetInCU: 0x1DB4A, offset: 0x1DB4A, size: 0x8, addend: 0x0, symName: __ZNSt3__15dequeIN6seneca13CustomerOrderENS_9allocatorIS2_EEE19__add_back_capacityEv, symObjAddr: 0x8354, symBinAddr: 0x10000B1B8, symSize: 0x34C }
  - { offsetInCU: 0x1DBFF, offset: 0x1DBFF, size: 0x8, addend: 0x0, symName: __ZNKSt3__15dequeIN6seneca13CustomerOrderENS_9allocatorIS2_EEE24__annotate_increase_backB8ue170006Em, symObjAddr: 0x86A0, symBinAddr: 0x10000B504, symSize: 0x7C }
  - { offsetInCU: 0x1DC34, offset: 0x1DC34, size: 0x8, addend: 0x0, symName: __ZNKSt3__15dequeIN6seneca13CustomerOrderENS_9allocatorIS2_EEE10__capacityB8ue170006Ev, symObjAddr: 0x871C, symBinAddr: 0x10000B580, symSize: 0x60 }
  - { offsetInCU: 0x1DC5A, offset: 0x1DC5A, size: 0x8, addend: 0x0, symName: __ZNKSt3__15dequeIN6seneca13CustomerOrderENS_9allocatorIS2_EEE13__front_spareB8ue170006Ev, symObjAddr: 0x877C, symBinAddr: 0x10000B5E0, symSize: 0x18 }
  - { offsetInCU: 0x1DC80, offset: 0x1DC80, size: 0x8, addend: 0x0, symName: __ZNSt3__114__split_bufferIPN6seneca13CustomerOrderENS_9allocatorIS3_EEE9push_backB8ue170006ERKS3_, symObjAddr: 0x8794, symBinAddr: 0x10000B5F8, symSize: 0x260 }
  - { offsetInCU: 0x1DCF8, offset: 0x1DCF8, size: 0x8, addend: 0x0, symName: __ZNKSt3__114__split_bufferIPN6seneca13CustomerOrderENS_9allocatorIS3_EEE12__back_spareB8ue170006Ev, symObjAddr: 0x89F4, symBinAddr: 0x10000B858, symSize: 0x40 }
  - { offsetInCU: 0x1DD1E, offset: 0x1DD1E, size: 0x8, addend: 0x0, symName: __ZNSt3__114__split_bufferIPN6seneca13CustomerOrderENS_9allocatorIS3_EEE9push_backEOS3_, symObjAddr: 0x8A34, symBinAddr: 0x10000B898, symSize: 0x260 }
  - { offsetInCU: 0x1DD96, offset: 0x1DD96, size: 0x8, addend: 0x0, symName: __ZNSt3__116allocator_traitsINS_9allocatorIN6seneca13CustomerOrderEEEE8allocateB8ue170006ERS4_m, symObjAddr: 0x8C94, symBinAddr: 0x10000BAF8, symSize: 0x2C }
  - { offsetInCU: 0x1DDC9, offset: 0x1DDC9, size: 0x8, addend: 0x0, symName: __ZNSt3__114__split_bufferIPN6seneca13CustomerOrderENS_9allocatorIS3_EEE10push_frontEOS3_, symObjAddr: 0x8CC0, symBinAddr: 0x10000BB24, symSize: 0x25C }
  - { offsetInCU: 0x1DE41, offset: 0x1DE41, size: 0x8, addend: 0x0, symName: __ZNSt3__114__split_bufferIPN6seneca13CustomerOrderERNS_9allocatorIS3_EEEC1EmmS6_, symObjAddr: 0x8F1C, symBinAddr: 0x10000BD80, symSize: 0x44 }
  - { offsetInCU: 0x1DE9C, offset: 0x1DE9C, size: 0x8, addend: 0x0, symName: __ZNSt3__122__allocator_destructorINS_9allocatorIN6seneca13CustomerOrderEEEEC1B8ue170006ERS4_m, symObjAddr: 0x8F60, symBinAddr: 0x10000BDC4, symSize: 0x3C }
  - { offsetInCU: 0x1DF4D, offset: 0x1DF4D, size: 0x8, addend: 0x0, symName: __ZNSt3__110unique_ptrIPN6seneca13CustomerOrderENS_22__allocator_destructorINS_9allocatorIS2_EEEEEC1B8ue170006ILb1EvEES3_NS_16__dependent_typeINS_27__unique_ptr_deleter_sfinaeIS7_EEXT_EE20__good_rval_ref_typeE, symObjAddr: 0x8F9C, symBinAddr: 0x10000BE00, symSize: 0x3C }
  - { offsetInCU: 0x1DF9E, offset: 0x1DF9E, size: 0x8, addend: 0x0, symName: __ZNSt3__114__split_bufferIPN6seneca13CustomerOrderERNS_9allocatorIS3_EEE9push_backEOS3_, symObjAddr: 0x8FD8, symBinAddr: 0x10000BE3C, symSize: 0x260 }
  - { offsetInCU: 0x1E016, offset: 0x1E016, size: 0x8, addend: 0x0, symName: __ZNKSt3__110unique_ptrIPN6seneca13CustomerOrderENS_22__allocator_destructorINS_9allocatorIS2_EEEEE3getB8ue170006Ev, symObjAddr: 0x9238, symBinAddr: 0x10000C09C, symSize: 0x28 }
  - { offsetInCU: 0x1E03C, offset: 0x1E03C, size: 0x8, addend: 0x0, symName: __ZNSt3__110unique_ptrIPN6seneca13CustomerOrderENS_22__allocator_destructorINS_9allocatorIS2_EEEEE7releaseB8ue170006Ev, symObjAddr: 0x9260, symBinAddr: 0x10000C0C4, symSize: 0x44 }
  - { offsetInCU: 0x1E071, offset: 0x1E071, size: 0x8, addend: 0x0, symName: __ZNSt3__114__split_bufferIPN6seneca13CustomerOrderERNS_9allocatorIS3_EEE10push_frontERKS3_, symObjAddr: 0x92A4, symBinAddr: 0x10000C108, symSize: 0x25C }
  - { offsetInCU: 0x1E0E9, offset: 0x1E0E9, size: 0x8, addend: 0x0, symName: __ZNSt3__114__split_bufferIPN6seneca13CustomerOrderENS_9allocatorIS3_EEE9__end_capB8ue170006Ev, symObjAddr: 0x953C, symBinAddr: 0x10000C3A0, symSize: 0x28 }
  - { offsetInCU: 0x1E10F, offset: 0x1E10F, size: 0x8, addend: 0x0, symName: __ZNSt3__114__split_bufferIPN6seneca13CustomerOrderERNS_9allocatorIS3_EEE9__end_capB8ue170006Ev, symObjAddr: 0x9564, symBinAddr: 0x10000C3C8, symSize: 0x28 }
  - { offsetInCU: 0x1E135, offset: 0x1E135, size: 0x8, addend: 0x0, symName: __ZNSt3__110unique_ptrIPN6seneca13CustomerOrderENS_22__allocator_destructorINS_9allocatorIS2_EEEEED1B8ue170006Ev, symObjAddr: 0x958C, symBinAddr: 0x10000C3F0, symSize: 0x2C }
  - { offsetInCU: 0x1E15F, offset: 0x1E15F, size: 0x8, addend: 0x0, symName: __ZNSt3__114__split_bufferIPN6seneca13CustomerOrderERNS_9allocatorIS3_EEED1Ev, symObjAddr: 0x95B8, symBinAddr: 0x10000C41C, symSize: 0x2C }
  - { offsetInCU: 0x1E18B, offset: 0x1E18B, size: 0x8, addend: 0x0, symName: __ZNSt3__114__split_bufferIPN6seneca13CustomerOrderERNS_9allocatorIS3_EEE18__construct_at_endINS_13move_iteratorIPS3_EEEENS_9enable_ifIXsr31__has_forward_iterator_categoryIT_EE5valueEvE4typeESD_SD_, symObjAddr: 0x9624, symBinAddr: 0x10000C488, symSize: 0x60 }
  - { offsetInCU: 0x1E1D8, offset: 0x1E1D8, size: 0x8, addend: 0x0, symName: __ZNSt3__113move_iteratorIPPN6seneca13CustomerOrderEEC1B8ue170006ES4_, symObjAddr: 0x9684, symBinAddr: 0x10000C4E8, symSize: 0x34 }
  - { offsetInCU: 0x1E210, offset: 0x1E210, size: 0x8, addend: 0x0, symName: __ZNSt3__116allocator_traitsINS_9allocatorIPN6seneca13CustomerOrderEEEE9constructB8ue170006IS4_JRKS4_EvEEvRS5_PT_DpOT0_, symObjAddr: 0x96B8, symBinAddr: 0x10000C51C, symSize: 0x34 }
  - { offsetInCU: 0x1E28B, offset: 0x1E28B, size: 0x8, addend: 0x0, symName: __ZNKSt3__114__move_trivialclB8ue170006IPN6seneca13CustomerOrderES4_Li0EEENS_4pairIPT_PT0_EES7_S7_S9_, symObjAddr: 0x9888, symBinAddr: 0x10000C6EC, symSize: 0x48 }
  - { offsetInCU: 0x1E2F9, offset: 0x1E2F9, size: 0x8, addend: 0x0, symName: __ZNSt3__14pairIPPN6seneca13CustomerOrderES4_EC1B8ue170006IRS4_S4_LPv0EEEOT_OT0_, symObjAddr: 0x9AB0, symBinAddr: 0x10000C914, symSize: 0x3C }
  - { offsetInCU: 0x1E357, offset: 0x1E357, size: 0x8, addend: 0x0, symName: __ZNSt3__14pairIPPN6seneca13CustomerOrderES4_EC2B8ue170006IRS4_S4_LPv0EEEOT_OT0_, symObjAddr: 0x9AEC, symBinAddr: 0x10000C950, symSize: 0x34 }
  - { offsetInCU: 0x1E3B5, offset: 0x1E3B5, size: 0x8, addend: 0x0, symName: __ZNSt3__118__unwrap_iter_implIPPN6seneca13CustomerOrderELb1EE8__unwrapB8ue170006ES4_, symObjAddr: 0x9B20, symBinAddr: 0x10000C984, symSize: 0x24 }
  - { offsetInCU: 0x1E3D8, offset: 0x1E3D8, size: 0x8, addend: 0x0, symName: __ZNSt3__14pairIPPN6seneca13CustomerOrderES4_EC1B8ue170006IS4_S4_LPv0EEEOT_OT0_, symObjAddr: 0x9B44, symBinAddr: 0x10000C9A8, symSize: 0x3C }
  - { offsetInCU: 0x1E436, offset: 0x1E436, size: 0x8, addend: 0x0, symName: __ZNSt3__14pairIPPN6seneca13CustomerOrderES4_EC2B8ue170006IS4_S4_LPv0EEEOT_OT0_, symObjAddr: 0x9B80, symBinAddr: 0x10000C9E4, symSize: 0x34 }
  - { offsetInCU: 0x1E494, offset: 0x1E494, size: 0x8, addend: 0x0, symName: __ZNSt3__118__unwrap_iter_implIPPN6seneca13CustomerOrderELb1EE8__rewrapB8ue170006ES4_S4_, symObjAddr: 0x9BB4, symBinAddr: 0x10000CA18, symSize: 0x50 }
  - { offsetInCU: 0x1E4C5, offset: 0x1E4C5, size: 0x8, addend: 0x0, symName: __ZNSt3__114__split_bufferIPN6seneca13CustomerOrderERNS_9allocatorIS3_EEE28__construct_at_end_with_sizeINS_13move_iteratorIPS3_EEEEvT_m, symObjAddr: 0x9C04, symBinAddr: 0x10000CA68, symSize: 0xDC }
  - { offsetInCU: 0x1E52B, offset: 0x1E52B, size: 0x8, addend: 0x0, symName: __ZNSt3__114__split_bufferIPN6seneca13CustomerOrderERNS_9allocatorIS3_EEE21_ConstructTransactionC1B8ue170006EPPS3_m, symObjAddr: 0x9D1C, symBinAddr: 0x10000CB80, symSize: 0x3C }
  - { offsetInCU: 0x1E571, offset: 0x1E571, size: 0x8, addend: 0x0, symName: __ZNSt3__116allocator_traitsINS_9allocatorIPN6seneca13CustomerOrderEEEE9constructB8ue170006IS4_JS4_EvEEvRS5_PT_DpOT0_, symObjAddr: 0x9D58, symBinAddr: 0x10000CBBC, symSize: 0x34 }
  - { offsetInCU: 0x1E5C8, offset: 0x1E5C8, size: 0x8, addend: 0x0, symName: __ZNSt3__114__split_bufferIPN6seneca13CustomerOrderERNS_9allocatorIS3_EEE7__allocB8ue170006Ev, symObjAddr: 0x9D8C, symBinAddr: 0x10000CBF0, symSize: 0x28 }
  - { offsetInCU: 0x1E5EE, offset: 0x1E5EE, size: 0x8, addend: 0x0, symName: __ZNKSt3__113move_iteratorIPPN6seneca13CustomerOrderEEdeB8ue170006Ev, symObjAddr: 0x9DB4, symBinAddr: 0x10000CC18, symSize: 0x18 }
  - { offsetInCU: 0x1E614, offset: 0x1E614, size: 0x8, addend: 0x0, symName: __ZNSt3__113move_iteratorIPPN6seneca13CustomerOrderEEppB8ue170006Ev, symObjAddr: 0x9DCC, symBinAddr: 0x10000CC30, symSize: 0x20 }
  - { offsetInCU: 0x1E63A, offset: 0x1E63A, size: 0x8, addend: 0x0, symName: __ZNSt3__114__split_bufferIPN6seneca13CustomerOrderERNS_9allocatorIS3_EEE21_ConstructTransactionD1B8ue170006Ev, symObjAddr: 0x9DEC, symBinAddr: 0x10000CC50, symSize: 0x2C }
  - { offsetInCU: 0x1E664, offset: 0x1E664, size: 0x8, addend: 0x0, symName: __ZNSt3__114__split_bufferIPN6seneca13CustomerOrderERNS_9allocatorIS3_EEE21_ConstructTransactionC2B8ue170006EPPS3_m, symObjAddr: 0x9E18, symBinAddr: 0x10000CC7C, symSize: 0x44 }
  - { offsetInCU: 0x1E6AA, offset: 0x1E6AA, size: 0x8, addend: 0x0, symName: __ZNSt3__19allocatorIPN6seneca13CustomerOrderEE9constructB8ue170006IS3_JS3_EEEvPT_DpOT0_, symObjAddr: 0x9E5C, symBinAddr: 0x10000CCC0, symSize: 0x28 }
  - { offsetInCU: 0x1E700, offset: 0x1E700, size: 0x8, addend: 0x0, symName: __ZNSt3__117__compressed_pairIPPN6seneca13CustomerOrderERNS_9allocatorIS3_EEE6secondB8ue170006Ev, symObjAddr: 0x9E84, symBinAddr: 0x10000CCE8, symSize: 0x28 }
  - { offsetInCU: 0x1E726, offset: 0x1E726, size: 0x8, addend: 0x0, symName: __ZNSt3__122__compressed_pair_elemIRNS_9allocatorIPN6seneca13CustomerOrderEEELi1ELb0EE5__getB8ue170006Ev, symObjAddr: 0x9EAC, symBinAddr: 0x10000CD10, symSize: 0x18 }
  - { offsetInCU: 0x1E74C, offset: 0x1E74C, size: 0x8, addend: 0x0, symName: __ZNSt3__114__split_bufferIPN6seneca13CustomerOrderERNS_9allocatorIS3_EEE21_ConstructTransactionD2B8ue170006Ev, symObjAddr: 0x9EC4, symBinAddr: 0x10000CD28, symSize: 0x20 }
  - { offsetInCU: 0x1E776, offset: 0x1E776, size: 0x8, addend: 0x0, symName: __ZNKSt3__113move_iteratorIPPN6seneca13CustomerOrderEE4baseB8ue170006Ev, symObjAddr: 0x9F5C, symBinAddr: 0x10000CDC0, symSize: 0x18 }
  - { offsetInCU: 0x1E79C, offset: 0x1E79C, size: 0x8, addend: 0x0, symName: __ZNSt3__113move_iteratorIPPN6seneca13CustomerOrderEEC2B8ue170006ES4_, symObjAddr: 0x9F74, symBinAddr: 0x10000CDD8, symSize: 0x20 }
  - { offsetInCU: 0x1E7D4, offset: 0x1E7D4, size: 0x8, addend: 0x0, symName: __ZNSt3__19allocatorIPN6seneca13CustomerOrderEE9constructB8ue170006IS3_JRKS3_EEEvPT_DpOT0_, symObjAddr: 0x9F94, symBinAddr: 0x10000CDF8, symSize: 0x28 }
  - { offsetInCU: 0x1E834, offset: 0x1E834, size: 0x8, addend: 0x0, symName: __ZNKSt3__123__move_backward_trivialclB8ue170006IPN6seneca13CustomerOrderES4_Li0EEENS_4pairIPT_PT0_EES7_S7_S9_, symObjAddr: 0xA138, symBinAddr: 0x10000CF9C, symSize: 0x48 }
  - { offsetInCU: 0x1E89C, offset: 0x1E89C, size: 0x8, addend: 0x0, symName: __ZNSt3__14pairIPPN6seneca13CustomerOrderES4_EC1B8ue170006IRS4_S7_LPv0EEEOT_OT0_, symObjAddr: 0xA248, symBinAddr: 0x10000D0AC, symSize: 0x3C }
  - { offsetInCU: 0x1E8FA, offset: 0x1E8FA, size: 0x8, addend: 0x0, symName: __ZNSt3__14pairIPPN6seneca13CustomerOrderES4_EC2B8ue170006IRS4_S7_LPv0EEEOT_OT0_, symObjAddr: 0xA284, symBinAddr: 0x10000D0E8, symSize: 0x34 }
  - { offsetInCU: 0x1E958, offset: 0x1E958, size: 0x8, addend: 0x0, symName: __ZNSt3__114__split_bufferIPN6seneca13CustomerOrderERNS_9allocatorIS3_EEEC2EmmS6_, symObjAddr: 0xA2B8, symBinAddr: 0x10000D11C, symSize: 0xD4 }
  - { offsetInCU: 0x1E9CB, offset: 0x1E9CB, size: 0x8, addend: 0x0, symName: __ZNSt3__117__compressed_pairIPPN6seneca13CustomerOrderERNS_9allocatorIS3_EEEC1B8ue170006IDnS7_EEOT_OT0_, symObjAddr: 0xA38C, symBinAddr: 0x10000D1F0, symSize: 0x3C }
  - { offsetInCU: 0x1EA23, offset: 0x1EA23, size: 0x8, addend: 0x0, symName: __ZNSt3__117__compressed_pairIPPN6seneca13CustomerOrderERNS_9allocatorIS3_EEEC2B8ue170006IDnS7_EEOT_OT0_, symObjAddr: 0xA408, symBinAddr: 0x10000D26C, symSize: 0x48 }
  - { offsetInCU: 0x1EA7B, offset: 0x1EA7B, size: 0x8, addend: 0x0, symName: __ZNSt3__122__compressed_pair_elemIRNS_9allocatorIPN6seneca13CustomerOrderEEELi1ELb0EEC2B8ue170006IS6_vEEOT_, symObjAddr: 0xA450, symBinAddr: 0x10000D2B4, symSize: 0x20 }
  - { offsetInCU: 0x1EABD, offset: 0x1EABD, size: 0x8, addend: 0x0, symName: __ZNSt3__19allocatorIPN6seneca13CustomerOrderEE8allocateB8ue170006Em, symObjAddr: 0xA470, symBinAddr: 0x10000D2D4, symSize: 0x58 }
  - { offsetInCU: 0x1EAFB, offset: 0x1EAFB, size: 0x8, addend: 0x0, symName: __ZNSt3__116allocator_traitsINS_9allocatorIPN6seneca13CustomerOrderEEEE8max_sizeB8ue170006IS5_vEEmRKS5_, symObjAddr: 0xA4C8, symBinAddr: 0x10000D32C, symSize: 0x24 }
  - { offsetInCU: 0x1EB29, offset: 0x1EB29, size: 0x8, addend: 0x0, symName: __ZNKSt3__19allocatorIPN6seneca13CustomerOrderEE8max_sizeB8ue170006Ev, symObjAddr: 0xA4EC, symBinAddr: 0x10000D350, symSize: 0x14 }
  - { offsetInCU: 0x1EB4F, offset: 0x1EB4F, size: 0x8, addend: 0x0, symName: __ZNSt3__122__allocator_destructorINS_9allocatorIN6seneca13CustomerOrderEEEEC2B8ue170006ERS4_m, symObjAddr: 0xA500, symBinAddr: 0x10000D364, symSize: 0x2C }
  - { offsetInCU: 0x1EB95, offset: 0x1EB95, size: 0x8, addend: 0x0, symName: __ZNSt3__110unique_ptrIPN6seneca13CustomerOrderENS_22__allocator_destructorINS_9allocatorIS2_EEEEEC2B8ue170006ILb1EvEES3_NS_16__dependent_typeINS_27__unique_ptr_deleter_sfinaeIS7_EEXT_EE20__good_rval_ref_typeE, symObjAddr: 0xA52C, symBinAddr: 0x10000D390, symSize: 0x48 }
  - { offsetInCU: 0x1EBE6, offset: 0x1EBE6, size: 0x8, addend: 0x0, symName: __ZNSt3__117__compressed_pairIPN6seneca13CustomerOrderENS_22__allocator_destructorINS_9allocatorIS2_EEEEEC1B8ue170006IRS3_S7_EEOT_OT0_, symObjAddr: 0xA574, symBinAddr: 0x10000D3D8, symSize: 0x3C }
  - { offsetInCU: 0x1EC3E, offset: 0x1EC3E, size: 0x8, addend: 0x0, symName: __ZNSt3__117__compressed_pairIPN6seneca13CustomerOrderENS_22__allocator_destructorINS_9allocatorIS2_EEEEEC2B8ue170006IRS3_S7_EEOT_OT0_, symObjAddr: 0xA5B0, symBinAddr: 0x10000D414, symSize: 0x48 }
  - { offsetInCU: 0x1EC96, offset: 0x1EC96, size: 0x8, addend: 0x0, symName: __ZNSt3__122__compressed_pair_elemIPN6seneca13CustomerOrderELi0ELb0EEC2B8ue170006IRS3_vEEOT_, symObjAddr: 0xA5F8, symBinAddr: 0x10000D45C, symSize: 0x24 }
  - { offsetInCU: 0x1ECD8, offset: 0x1ECD8, size: 0x8, addend: 0x0, symName: __ZNSt3__122__compressed_pair_elemINS_22__allocator_destructorINS_9allocatorIN6seneca13CustomerOrderEEEEELi1ELb0EEC2B8ue170006IS6_vEEOT_, symObjAddr: 0xA61C, symBinAddr: 0x10000D480, symSize: 0x24 }
  - { offsetInCU: 0x1ED1A, offset: 0x1ED1A, size: 0x8, addend: 0x0, symName: __ZNKSt3__117__compressed_pairIPN6seneca13CustomerOrderENS_22__allocator_destructorINS_9allocatorIS2_EEEEE5firstB8ue170006Ev, symObjAddr: 0xA640, symBinAddr: 0x10000D4A4, symSize: 0x24 }
  - { offsetInCU: 0x1ED40, offset: 0x1ED40, size: 0x8, addend: 0x0, symName: __ZNSt3__117__compressed_pairIPN6seneca13CustomerOrderENS_22__allocator_destructorINS_9allocatorIS2_EEEEE5firstB8ue170006Ev, symObjAddr: 0xA664, symBinAddr: 0x10000D4C8, symSize: 0x24 }
  - { offsetInCU: 0x1ED66, offset: 0x1ED66, size: 0x8, addend: 0x0, symName: __ZNSt3__117__compressed_pairIPPN6seneca13CustomerOrderENS_9allocatorIS3_EEE5firstB8ue170006Ev, symObjAddr: 0xA688, symBinAddr: 0x10000D4EC, symSize: 0x24 }
  - { offsetInCU: 0x1ED8C, offset: 0x1ED8C, size: 0x8, addend: 0x0, symName: __ZNSt3__122__compressed_pair_elemIPPN6seneca13CustomerOrderELi0ELb0EE5__getB8ue170006Ev, symObjAddr: 0xA6AC, symBinAddr: 0x10000D510, symSize: 0x14 }
  - { offsetInCU: 0x1EDB2, offset: 0x1EDB2, size: 0x8, addend: 0x0, symName: __ZNSt3__117__compressed_pairIPPN6seneca13CustomerOrderERNS_9allocatorIS3_EEE5firstB8ue170006Ev, symObjAddr: 0xA6C0, symBinAddr: 0x10000D524, symSize: 0x24 }
  - { offsetInCU: 0x1EDD8, offset: 0x1EDD8, size: 0x8, addend: 0x0, symName: __ZNSt3__110unique_ptrIPN6seneca13CustomerOrderENS_22__allocator_destructorINS_9allocatorIS2_EEEEED2B8ue170006Ev, symObjAddr: 0xA6E4, symBinAddr: 0x10000D548, symSize: 0x30 }
  - { offsetInCU: 0x1EE02, offset: 0x1EE02, size: 0x8, addend: 0x0, symName: __ZNSt3__110unique_ptrIPN6seneca13CustomerOrderENS_22__allocator_destructorINS_9allocatorIS2_EEEEE5resetB8ue170006ES3_, symObjAddr: 0xA714, symBinAddr: 0x10000D578, symSize: 0x78 }
  - { offsetInCU: 0x1EE46, offset: 0x1EE46, size: 0x8, addend: 0x0, symName: __ZNSt3__117__compressed_pairIPN6seneca13CustomerOrderENS_22__allocator_destructorINS_9allocatorIS2_EEEEE6secondB8ue170006Ev, symObjAddr: 0xA78C, symBinAddr: 0x10000D5F0, symSize: 0x28 }
  - { offsetInCU: 0x1EE6C, offset: 0x1EE6C, size: 0x8, addend: 0x0, symName: __ZNSt3__122__allocator_destructorINS_9allocatorIN6seneca13CustomerOrderEEEEclB8ue170006EPS3_, symObjAddr: 0xA7B4, symBinAddr: 0x10000D618, symSize: 0x34 }
  - { offsetInCU: 0x1EEA0, offset: 0x1EEA0, size: 0x8, addend: 0x0, symName: __ZNSt3__122__compressed_pair_elemINS_22__allocator_destructorINS_9allocatorIN6seneca13CustomerOrderEEEEELi1ELb0EE5__getB8ue170006Ev, symObjAddr: 0xA7E8, symBinAddr: 0x10000D64C, symSize: 0x14 }
  - { offsetInCU: 0x1EEC6, offset: 0x1EEC6, size: 0x8, addend: 0x0, symName: __ZNSt3__114__split_bufferIPN6seneca13CustomerOrderERNS_9allocatorIS3_EEED2Ev, symObjAddr: 0xA7FC, symBinAddr: 0x10000D660, symSize: 0x8C }
  - { offsetInCU: 0x1EEF2, offset: 0x1EEF2, size: 0x8, addend: 0x0, symName: __ZNSt3__114__split_bufferIPN6seneca13CustomerOrderERNS_9allocatorIS3_EEE5clearB8ue170006Ev, symObjAddr: 0xA888, symBinAddr: 0x10000D6EC, symSize: 0x28 }
  - { offsetInCU: 0x1EF18, offset: 0x1EF18, size: 0x8, addend: 0x0, symName: __ZNKSt3__114__split_bufferIPN6seneca13CustomerOrderERNS_9allocatorIS3_EEE8capacityB8ue170006Ev, symObjAddr: 0xA8B0, symBinAddr: 0x10000D714, symSize: 0x40 }
  - { offsetInCU: 0x1EF3E, offset: 0x1EF3E, size: 0x8, addend: 0x0, symName: __ZNSt3__114__split_bufferIPN6seneca13CustomerOrderERNS_9allocatorIS3_EEE17__destruct_at_endB8ue170006EPS3_, symObjAddr: 0xA8F0, symBinAddr: 0x10000D754, symSize: 0x2C }
  - { offsetInCU: 0x1EF72, offset: 0x1EF72, size: 0x8, addend: 0x0, symName: __ZNSt3__114__split_bufferIPN6seneca13CustomerOrderERNS_9allocatorIS3_EEE17__destruct_at_endB8ue170006EPS3_NS_17integral_constantIbLb0EEE, symObjAddr: 0xA91C, symBinAddr: 0x10000D780, symSize: 0x80 }
  - { offsetInCU: 0x1EFB2, offset: 0x1EFB2, size: 0x8, addend: 0x0, symName: __ZNKSt3__114__split_bufferIPN6seneca13CustomerOrderERNS_9allocatorIS3_EEE9__end_capB8ue170006Ev, symObjAddr: 0xA99C, symBinAddr: 0x10000D800, symSize: 0x28 }
  - { offsetInCU: 0x1EFD8, offset: 0x1EFD8, size: 0x8, addend: 0x0, symName: __ZNKSt3__117__compressed_pairIPPN6seneca13CustomerOrderERNS_9allocatorIS3_EEE5firstB8ue170006Ev, symObjAddr: 0xA9C4, symBinAddr: 0x10000D828, symSize: 0x24 }
  - { offsetInCU: 0x1EFFE, offset: 0x1EFFE, size: 0x8, addend: 0x0, symName: __ZNSt3__112basic_stringIcNS_11char_traitsIcEENS_9allocatorIcEEEC2B8ue170006ILi0EEEPKc, symObjAddr: 0xA9E8, symBinAddr: 0x10000D84C, symSize: 0x58 }
  - { offsetInCU: 0x1F03D, offset: 0x1F03D, size: 0x8, addend: 0x0, symName: __ZNKSt3__114__split_bufferIPN6seneca13CustomerOrderENS_9allocatorIS3_EEE5emptyB8ue170006Ev, symObjAddr: 0xAA40, symBinAddr: 0x10000D8A4, symSize: 0x28 }
  - { offsetInCU: 0x1F063, offset: 0x1F063, size: 0x8, addend: 0x0, symName: __ZNSt3__116__deque_iteratorIN6seneca13CustomerOrderEPS2_RS2_PS3_lLl64EEC1B8ue170006ES5_S3_, symObjAddr: 0xAA68, symBinAddr: 0x10000D8CC, symSize: 0x3C }
  - { offsetInCU: 0x1F0AB, offset: 0x1F0AB, size: 0x8, addend: 0x0, symName: __ZNSt3__116__deque_iteratorIN6seneca13CustomerOrderEPS2_RS2_PS3_lLl64EEC2B8ue170006ES5_S3_, symObjAddr: 0xAAA4, symBinAddr: 0x10000D908, symSize: 0x2C }
  - { offsetInCU: 0x3E, offset: 0x1F339, size: 0x8, addend: 0x0, symName: __ZN6seneca9Utilities11m_delimiterE, symObjAddr: 0x1650, symBinAddr: 0x10001C000, symSize: 0x0 }
  - { offsetInCU: 0x3282, offset: 0x2257D, size: 0x8, addend: 0x0, symName: '__ZNSt3__17find_ifB8ue170006INS_11__wrap_iterIPcEEZN6seneca9Utilities12extractTokenERKNS_12basic_stringIcNS_11char_traitsIcEENS_9allocatorIcEEEERmRbE3$_0EET_SH_SH_T0_', symObjAddr: 0x63C, symBinAddr: 0x10000DF40, symSize: 0x74 }
  - { offsetInCU: 0x32DD, offset: 0x225D8, size: 0x8, addend: 0x0, symName: '__ZNSt3__17find_ifB8ue170006INS_16reverse_iteratorINS_11__wrap_iterIPcEEEEZN6seneca9Utilities12extractTokenERKNS_12basic_stringIcNS_11char_traitsIcEENS_9allocatorIcEEEERmRbE3$_1EET_SJ_SJ_T0_', symObjAddr: 0x704, symBinAddr: 0x10000E008, symSize: 0x80 }
  - { offsetInCU: 0x3338, offset: 0x22633, size: 0x8, addend: 0x0, symName: __ZNSt3__1neB8ue170006IPcEEbRKNS_11__wrap_iterIT_EES6_, symObjAddr: 0x1198, symBinAddr: 0x10000E48C, symSize: 0x34 }
  - { offsetInCU: 0x337B, offset: 0x22676, size: 0x8, addend: 0x0, symName: __ZNSt3__1eqB8ue170006IPcEEbRKNS_11__wrap_iterIT_EES6_, symObjAddr: 0x1238, symBinAddr: 0x10000E52C, symSize: 0x48 }
  - { offsetInCU: 0x33BE, offset: 0x226B9, size: 0x8, addend: 0x0, symName: __ZNSt3__1miB8ue170006IPKcPcEEDTmicldtfp_4baseEcldtfp0_4baseEERKNS_11__wrap_iterIT_EERKNS5_IT0_EE, symObjAddr: 0x1358, symBinAddr: 0x10000E64C, symSize: 0x40 }
  - { offsetInCU: 0x340A, offset: 0x22705, size: 0x8, addend: 0x0, symName: __ZNSt3__1miB8ue170006IPKcS2_EEDTmicldtfp_4baseEcldtfp0_4baseEERKNS_11__wrap_iterIT_EERKNS4_IT0_EE, symObjAddr: 0x1398, symBinAddr: 0x10000E68C, symSize: 0x40 }
  - { offsetInCU: 0x3456, offset: 0x22751, size: 0x8, addend: 0x0, symName: __ZNSt3__1neB8ue170006INS_11__wrap_iterIPcEES3_EEbRKNS_16reverse_iteratorIT_EERKNS4_IT0_EE, symObjAddr: 0x14B0, symBinAddr: 0x10000E7A4, symSize: 0x54 }
  - { offsetInCU: 0x3A68, offset: 0x22D63, size: 0x8, addend: 0x0, symName: __Z7isspacei, symObjAddr: 0x1280, symBinAddr: 0x10000E574, symSize: 0x28 }
  - { offsetInCU: 0x54EC, offset: 0x247E7, size: 0x8, addend: 0x0, symName: __ZN6seneca9Utilities13setFieldWidthEm, symObjAddr: 0x0, symBinAddr: 0x10000D964, symSize: 0x20 }
  - { offsetInCU: 0x5522, offset: 0x2481D, size: 0x8, addend: 0x0, symName: __ZNK6seneca9Utilities13getFieldWidthEv, symObjAddr: 0x20, symBinAddr: 0x10000D984, symSize: 0x18 }
  - { offsetInCU: 0x554A, offset: 0x24845, size: 0x8, addend: 0x0, symName: __ZN6seneca9Utilities12extractTokenERKNSt3__112basic_stringIcNS1_11char_traitsIcEENS1_9allocatorIcEEEERmRb, symObjAddr: 0x38, symBinAddr: 0x10000D99C, symSize: 0x3C4 }
  - { offsetInCU: 0x55F7, offset: 0x248F2, size: 0x8, addend: 0x0, symName: __ZNKSt3__112basic_stringIcNS_11char_traitsIcEENS_9allocatorIcEEE6lengthB8ue170006Ev, symObjAddr: 0x3FC, symBinAddr: 0x10000DD60, symSize: 0x24 }
  - { offsetInCU: 0x5622, offset: 0x2491D, size: 0x8, addend: 0x0, symName: __ZNKSt3__112basic_stringIcNS_11char_traitsIcEENS_9allocatorIcEEE6substrB8ue170006Emm, symObjAddr: 0x480, symBinAddr: 0x10000DD84, symSize: 0x68 }
  - { offsetInCU: 0x5666, offset: 0x24961, size: 0x8, addend: 0x0, symName: __ZNSt3__112basic_stringIcNS_11char_traitsIcEENS_9allocatorIcEEEaSB8ue170006EOS5_, symObjAddr: 0x4E8, symBinAddr: 0x10000DDEC, symSize: 0x34 }
  - { offsetInCU: 0x569B, offset: 0x24996, size: 0x8, addend: 0x0, symName: __ZNSt3__112basic_stringIcNS_11char_traitsIcEENS_9allocatorIcEEE5eraseB8ue170006ENS_11__wrap_iterIPKcEES9_, symObjAddr: 0x51C, symBinAddr: 0x10000DE20, symSize: 0x98 }
  - { offsetInCU: 0x56FF, offset: 0x249FA, size: 0x8, addend: 0x0, symName: __ZNSt3__112basic_stringIcNS_11char_traitsIcEENS_9allocatorIcEEE5beginB8ue170006Ev, symObjAddr: 0x5B4, symBinAddr: 0x10000DEB8, symSize: 0x4C }
  - { offsetInCU: 0x572F, offset: 0x24A2A, size: 0x8, addend: 0x0, symName: __ZNSt3__111__wrap_iterIPKcEC1B8ue170006IPcEERKNS0_IT_EEPNS_9enable_ifIXsr14is_convertibleIS6_S2_EE5valueEvE4typeE, symObjAddr: 0x600, symBinAddr: 0x10000DF04, symSize: 0x3C }
  - { offsetInCU: 0x577A, offset: 0x24A75, size: 0x8, addend: 0x0, symName: __ZNSt3__112basic_stringIcNS_11char_traitsIcEENS_9allocatorIcEEE3endB8ue170006Ev, symObjAddr: 0x6B0, symBinAddr: 0x10000DFB4, symSize: 0x54 }
  - { offsetInCU: 0x57A0, offset: 0x24A9B, size: 0x8, addend: 0x0, symName: __ZNSt3__112basic_stringIcNS_11char_traitsIcEENS_9allocatorIcEEE6rbeginB8ue170006Ev, symObjAddr: 0x784, symBinAddr: 0x10000E088, symSize: 0x44 }
  - { offsetInCU: 0x57C6, offset: 0x24AC1, size: 0x8, addend: 0x0, symName: __ZNSt3__112basic_stringIcNS_11char_traitsIcEENS_9allocatorIcEEE4rendB8ue170006Ev, symObjAddr: 0x7C8, symBinAddr: 0x10000E0CC, symSize: 0x44 }
  - { offsetInCU: 0x57EC, offset: 0x24AE7, size: 0x8, addend: 0x0, symName: __ZNKSt3__116reverse_iteratorINS_11__wrap_iterIPcEEE4baseB8ue170006Ev, symObjAddr: 0x80C, symBinAddr: 0x10000E110, symSize: 0x20 }
  - { offsetInCU: 0x5812, offset: 0x24B0D, size: 0x8, addend: 0x0, symName: __ZN6seneca9Utilities12setDelimiterEc, symObjAddr: 0x82C, symBinAddr: 0x10000E130, symSize: 0x1C }
  - { offsetInCU: 0x5837, offset: 0x24B32, size: 0x8, addend: 0x0, symName: __ZN6seneca9Utilities12getDelimiterEv, symObjAddr: 0x848, symBinAddr: 0x10000E14C, symSize: 0xC }
  - { offsetInCU: 0x584D, offset: 0x24B48, size: 0x8, addend: 0x0, symName: __ZNSt3__111__wrap_iterIPKcEC2B8ue170006IPcEERKNS0_IT_EEPNS_9enable_ifIXsr14is_convertibleIS6_S2_EE5valueEvE4typeE, symObjAddr: 0x854, symBinAddr: 0x10000E158, symSize: 0x40 }
  - { offsetInCU: 0x5898, offset: 0x24B93, size: 0x8, addend: 0x0, symName: __ZNKSt3__111__wrap_iterIPcE4baseB8ue170006Ev, symObjAddr: 0x894, symBinAddr: 0x10000E198, symSize: 0x18 }
  - { offsetInCU: 0x58BE, offset: 0x24BB9, size: 0x8, addend: 0x0, symName: __ZNSt3__19allocatorIcEC1B8ue170006Ev, symObjAddr: 0xC40, symBinAddr: 0x10000E1B0, symSize: 0x2C }
  - { offsetInCU: 0x58E8, offset: 0x24BE3, size: 0x8, addend: 0x0, symName: __ZNSt3__112basic_stringIcNS_11char_traitsIcEENS_9allocatorIcEEE13__move_assignB8ue170006ERS5_NS_17integral_constantIbLb1EEE, symObjAddr: 0xC6C, symBinAddr: 0x10000E1DC, symSize: 0xC8 }
  - { offsetInCU: 0x592A, offset: 0x24C25, size: 0x8, addend: 0x0, symName: __ZNSt3__116allocator_traitsINS_9allocatorIcEEE10deallocateB8ue170006ERS2_Pcm, symObjAddr: 0xD34, symBinAddr: 0x10000E2A4, symSize: 0x34 }
  - { offsetInCU: 0x596C, offset: 0x24C67, size: 0x8, addend: 0x0, symName: __ZNSt3__112basic_stringIcNS_11char_traitsIcEENS_9allocatorIcEEE7__allocB8ue170006Ev, symObjAddr: 0xD68, symBinAddr: 0x10000E2D8, symSize: 0x24 }
  - { offsetInCU: 0x5992, offset: 0x24C8D, size: 0x8, addend: 0x0, symName: __ZNKSt3__112basic_stringIcNS_11char_traitsIcEENS_9allocatorIcEEE14__get_long_capB8ue170006Ev, symObjAddr: 0xDB4, symBinAddr: 0x10000E2FC, symSize: 0x30 }
  - { offsetInCU: 0x59B8, offset: 0x24CB3, size: 0x8, addend: 0x0, symName: __ZNSt3__112basic_stringIcNS_11char_traitsIcEENS_9allocatorIcEEE19__move_assign_allocB8ue170006ERS5_, symObjAddr: 0xDE4, symBinAddr: 0x10000E32C, symSize: 0x2C }
  - { offsetInCU: 0x59ED, offset: 0x24CE8, size: 0x8, addend: 0x0, symName: __ZNSt3__19allocatorIcE10deallocateB8ue170006EPcm, symObjAddr: 0xED4, symBinAddr: 0x10000E358, symSize: 0x40 }
  - { offsetInCU: 0x5A2F, offset: 0x24D2A, size: 0x8, addend: 0x0, symName: __ZNSt3__117__compressed_pairINS_12basic_stringIcNS_11char_traitsIcEENS_9allocatorIcEEE5__repES5_E6secondB8ue170006Ev, symObjAddr: 0x103C, symBinAddr: 0x10000E398, symSize: 0x24 }
  - { offsetInCU: 0x5A55, offset: 0x24D50, size: 0x8, addend: 0x0, symName: __ZNSt3__122__compressed_pair_elemINS_9allocatorIcEELi1ELb1EE5__getB8ue170006Ev, symObjAddr: 0x1060, symBinAddr: 0x10000E3BC, symSize: 0x14 }
  - { offsetInCU: 0x5A7B, offset: 0x24D76, size: 0x8, addend: 0x0, symName: __ZNSt3__112basic_stringIcNS_11char_traitsIcEENS_9allocatorIcEEE19__move_assign_allocB8ue170006ERS5_NS_17integral_constantIbLb1EEE, symObjAddr: 0x1074, symBinAddr: 0x10000E3D0, symSize: 0x38 }
  - { offsetInCU: 0x5ABB, offset: 0x24DB6, size: 0x8, addend: 0x0, symName: __ZNSt3__112basic_stringIcNS_11char_traitsIcEENS_9allocatorIcEEE15__make_iteratorB8ue170006EPc, symObjAddr: 0x10C0, symBinAddr: 0x10000E408, symSize: 0x30 }
  - { offsetInCU: 0x5AF0, offset: 0x24DEB, size: 0x8, addend: 0x0, symName: __ZNSt3__111__wrap_iterIPcEC1B8ue170006ES1_, symObjAddr: 0x1144, symBinAddr: 0x10000E438, symSize: 0x34 }
  - { offsetInCU: 0x5B28, offset: 0x24E23, size: 0x8, addend: 0x0, symName: __ZNSt3__111__wrap_iterIPcEC2B8ue170006ES1_, symObjAddr: 0x1178, symBinAddr: 0x10000E46C, symSize: 0x20 }
  - { offsetInCU: 0x5B6A, offset: 0x24E65, size: 0x8, addend: 0x0, symName: '__ZZN6seneca9Utilities12extractTokenERKNSt3__112basic_stringIcNS1_11char_traitsIcEENS1_9allocatorIcEEEERmRbENK3$_0clEh', symObjAddr: 0x11CC, symBinAddr: 0x10000E4C0, symSize: 0x34 }
  - { offsetInCU: 0x5BA2, offset: 0x24E9D, size: 0x8, addend: 0x0, symName: __ZNKSt3__111__wrap_iterIPcEdeB8ue170006Ev, symObjAddr: 0x1200, symBinAddr: 0x10000E4F4, symSize: 0x18 }
  - { offsetInCU: 0x5BC8, offset: 0x24EC3, size: 0x8, addend: 0x0, symName: __ZNSt3__111__wrap_iterIPcEppB8ue170006Ev, symObjAddr: 0x1218, symBinAddr: 0x10000E50C, symSize: 0x20 }
  - { offsetInCU: 0x5BEE, offset: 0x24EE9, size: 0x8, addend: 0x0, symName: __Z8__istypeim, symObjAddr: 0x12A8, symBinAddr: 0x10000E59C, symSize: 0x8C }
  - { offsetInCU: 0x5C28, offset: 0x24F23, size: 0x8, addend: 0x0, symName: __Z7isasciii, symObjAddr: 0x1334, symBinAddr: 0x10000E628, symSize: 0x24 }
  - { offsetInCU: 0x5C54, offset: 0x24F4F, size: 0x8, addend: 0x0, symName: __ZNKSt3__111__wrap_iterIPcEplB8ue170006El, symObjAddr: 0x13D8, symBinAddr: 0x10000E6CC, symSize: 0x3C }
  - { offsetInCU: 0x5C96, offset: 0x24F91, size: 0x8, addend: 0x0, symName: __ZNKSt3__111__wrap_iterIPKcE4baseB8ue170006Ev, symObjAddr: 0x1414, symBinAddr: 0x10000E708, symSize: 0x18 }
  - { offsetInCU: 0x5CBC, offset: 0x24FB7, size: 0x8, addend: 0x0, symName: __ZNSt3__111__wrap_iterIPcEpLB8ue170006El, symObjAddr: 0x142C, symBinAddr: 0x10000E720, symSize: 0x28 }
  - { offsetInCU: 0x5CF0, offset: 0x24FEB, size: 0x8, addend: 0x0, symName: __ZNSt3__116reverse_iteratorINS_11__wrap_iterIPcEEEC1B8ue170006ES3_, symObjAddr: 0x1454, symBinAddr: 0x10000E748, symSize: 0x34 }
  - { offsetInCU: 0x5D28, offset: 0x25023, size: 0x8, addend: 0x0, symName: __ZNSt3__116reverse_iteratorINS_11__wrap_iterIPcEEEC2B8ue170006ES3_, symObjAddr: 0x1488, symBinAddr: 0x10000E77C, symSize: 0x28 }
  - { offsetInCU: 0x5D6A, offset: 0x25065, size: 0x8, addend: 0x0, symName: '__ZZN6seneca9Utilities12extractTokenERKNSt3__112basic_stringIcNS1_11char_traitsIcEENS1_9allocatorIcEEEERmRbENK3$_1clEh', symObjAddr: 0x1504, symBinAddr: 0x10000E7F8, symSize: 0x34 }
  - { offsetInCU: 0x5DA2, offset: 0x2509D, size: 0x8, addend: 0x0, symName: __ZNKSt3__116reverse_iteratorINS_11__wrap_iterIPcEEEdeB8ue170006Ev, symObjAddr: 0x1538, symBinAddr: 0x10000E82C, symSize: 0x34 }
  - { offsetInCU: 0x5DD6, offset: 0x250D1, size: 0x8, addend: 0x0, symName: __ZNSt3__116reverse_iteratorINS_11__wrap_iterIPcEEEppB8ue170006Ev, symObjAddr: 0x156C, symBinAddr: 0x10000E860, symSize: 0x30 }
  - { offsetInCU: 0x5DFC, offset: 0x250F7, size: 0x8, addend: 0x0, symName: __ZNSt3__111__wrap_iterIPcEmmB8ue170006Ev, symObjAddr: 0x159C, symBinAddr: 0x10000E890, symSize: 0x20 }
  - { offsetInCU: 0x3E, offset: 0x251B1, size: 0x8, addend: 0x0, symName: __ZN6seneca7Station12m_widthFieldE, symObjAddr: 0x1B1B0, symBinAddr: 0x10001C010, symSize: 0x0 }
  - { offsetInCU: 0x131, offset: 0x252A4, size: 0x8, addend: 0x0, symName: __ZN6seneca7Station12id_generatorE, symObjAddr: 0x1B1B8, symBinAddr: 0x10001C018, symSize: 0x0 }
  - { offsetInCU: 0x401D, offset: 0x29190, size: 0x8, addend: 0x0, symName: __ZNSt3__1lsB8ue170006INS_11char_traitsIcEEEERNS_13basic_ostreamIcT_EES6_RKNS_8__iom_t4IcEE, symObjAddr: 0x5DC, symBinAddr: 0x10000EDC0, symSize: 0x40 }
  - { offsetInCU: 0x4060, offset: 0x291D3, size: 0x8, addend: 0x0, symName: __ZNSt3__1lsB8ue170006IcNS_11char_traitsIcEEEERNS_13basic_ostreamIT_T0_EES7_RKNS_8__iom_t6E, symObjAddr: 0x61C, symBinAddr: 0x10000EE00, symSize: 0x40 }
  - { offsetInCU: 0x40AF, offset: 0x29222, size: 0x8, addend: 0x0, symName: __ZNSt3__15rightB8ue170006ERNS_8ios_baseE, symObjAddr: 0x6E8, symBinAddr: 0x10000EE80, symSize: 0x30 }
  - { offsetInCU: 0x40DD, offset: 0x29250, size: 0x8, addend: 0x0, symName: __ZNSt3__14setwB8ue170006Ei, symObjAddr: 0x718, symBinAddr: 0x10000EEB0, symSize: 0x2C }
  - { offsetInCU: 0x410B, offset: 0x2927E, size: 0x8, addend: 0x0, symName: __ZNSt3__17setfillB8ue170006IcEENS_8__iom_t4IT_EES2_, symObjAddr: 0x744, symBinAddr: 0x10000EEDC, symSize: 0x2C }
  - { offsetInCU: 0x4140, offset: 0x292B3, size: 0x8, addend: 0x0, symName: __ZNSt3__14leftB8ue170006ERNS_8ios_baseE, symObjAddr: 0x770, symBinAddr: 0x10000EF08, symSize: 0x30 }
  - { offsetInCU: 0x62A4, offset: 0x2B417, size: 0x8, addend: 0x0, symName: __ZN6seneca7StationC2ERKNSt3__112basic_stringIcNS1_11char_traitsIcEENS1_9allocatorIcEEEE, symObjAddr: 0x0, symBinAddr: 0x10000E8B0, symSize: 0x228 }
  - { offsetInCU: 0x6327, offset: 0x2B49A, size: 0x8, addend: 0x0, symName: __ZN6seneca9UtilitiesC1Ev, symObjAddr: 0x254, symBinAddr: 0x10000EAD8, symSize: 0x2C }
  - { offsetInCU: 0x6353, offset: 0x2B4C6, size: 0x8, addend: 0x0, symName: __ZN6seneca7StationC1ERKNSt3__112basic_stringIcNS1_11char_traitsIcEENS1_9allocatorIcEEEE, symObjAddr: 0x2D8, symBinAddr: 0x10000EB04, symSize: 0x34 }
  - { offsetInCU: 0x638D, offset: 0x2B500, size: 0x8, addend: 0x0, symName: __ZNK6seneca7Station11getItemNameEv, symObjAddr: 0x30C, symBinAddr: 0x10000EB38, symSize: 0x18 }
  - { offsetInCU: 0x63B5, offset: 0x2B528, size: 0x8, addend: 0x0, symName: __ZN6seneca7Station19getNextSerialNumberEv, symObjAddr: 0x324, symBinAddr: 0x10000EB50, symSize: 0x20 }
  - { offsetInCU: 0x63DD, offset: 0x2B550, size: 0x8, addend: 0x0, symName: __ZNK6seneca7Station11getQuantityEv, symObjAddr: 0x344, symBinAddr: 0x10000EB70, symSize: 0x18 }
  - { offsetInCU: 0x6405, offset: 0x2B578, size: 0x8, addend: 0x0, symName: __ZN6seneca7Station14updateQuantityEv, symObjAddr: 0x35C, symBinAddr: 0x10000EB88, symSize: 0x40 }
  - { offsetInCU: 0x642E, offset: 0x2B5A1, size: 0x8, addend: 0x0, symName: __ZNK6seneca7Station7displayERNSt3__113basic_ostreamIcNS1_11char_traitsIcEEEEb, symObjAddr: 0x39C, symBinAddr: 0x10000EBC8, symSize: 0x1F8 }
  - { offsetInCU: 0x6471, offset: 0x2B5E4, size: 0x8, addend: 0x0, symName: __ZNSt3__113basic_ostreamIcNS_11char_traitsIcEEElsB8ue170006EPFRNS_8ios_baseES5_E, symObjAddr: 0x6A8, symBinAddr: 0x10000EE40, symSize: 0x40 }
  - { offsetInCU: 0x64A6, offset: 0x2B619, size: 0x8, addend: 0x0, symName: __ZN6seneca9UtilitiesC2Ev, symObjAddr: 0x824, symBinAddr: 0x10000EF38, symSize: 0x1C }
  - { offsetInCU: 0x64D2, offset: 0x2B645, size: 0x8, addend: 0x0, symName: __ZNSt3__18ios_base4setfB8ue170006Ejj, symObjAddr: 0x840, symBinAddr: 0x10000EF54, symSize: 0x5C }
  - { offsetInCU: 0x6527, offset: 0x2B69A, size: 0x8, addend: 0x0, symName: __ZNSt3__18ios_base6unsetfB8ue170006Ej, symObjAddr: 0x89C, symBinAddr: 0x10000EFB0, symSize: 0x28 }
  - { offsetInCU: 0x655D, offset: 0x2B6D0, size: 0x8, addend: 0x0, symName: __ZNSt3__18__iom_t6C1B8ue170006Ei, symObjAddr: 0x8C4, symBinAddr: 0x10000EFD8, symSize: 0x34 }
  - { offsetInCU: 0x6596, offset: 0x2B709, size: 0x8, addend: 0x0, symName: __ZNSt3__18__iom_t6C2B8ue170006Ei, symObjAddr: 0x8F8, symBinAddr: 0x10000F00C, symSize: 0x20 }
  - { offsetInCU: 0x65CD, offset: 0x2B740, size: 0x8, addend: 0x0, symName: __ZNSt3__18__iom_t4IcEC1B8ue170006Ec, symObjAddr: 0x107C, symBinAddr: 0x10000F02C, symSize: 0x34 }
  - { offsetInCU: 0x6606, offset: 0x2B779, size: 0x8, addend: 0x0, symName: __ZNSt3__18__iom_t4IcEC2B8ue170006Ec, symObjAddr: 0x10B0, symBinAddr: 0x10000F060, symSize: 0x20 }
  - { offsetInCU: 0x663E, offset: 0x2B7B1, size: 0x8, addend: 0x0, symName: __ZNSt3__19basic_iosIcNS_11char_traitsIcEEE4fillB8ue170006Ec, symObjAddr: 0x10D0, symBinAddr: 0x10000F080, symSize: 0x74 }
  - { offsetInCU: 0x3E, offset: 0x2B88E, size: 0x8, addend: 0x0, symName: __ZN6seneca13CustomerOrder12m_widthFieldE, symObjAddr: 0x308F0, symBinAddr: 0x10001C020, symSize: 0x0 }
  - { offsetInCU: 0x5BC8, offset: 0x31418, size: 0x8, addend: 0x0, symName: __ZNSt3__1eqB8ue170006INS_9allocatorIcEEEEbRKNS_12basic_stringIcNS_11char_traitsIcEET_EES9_, symObjAddr: 0xAE8, symBinAddr: 0x10000FB1C, symSize: 0x148 }
  - { offsetInCU: 0x5C3B, offset: 0x3148B, size: 0x8, addend: 0x0, symName: __ZNSt3__112__to_addressB8ue170006INS_12basic_stringIcNS_11char_traitsIcEENS_9allocatorIcEEEEEEPT_S8_, symObjAddr: 0x1F1C, symBinAddr: 0x100010518, symSize: 0x14 }
  - { offsetInCU: 0x5C70, offset: 0x314C0, size: 0x8, addend: 0x0, symName: __ZNSt3__119__allocate_at_leastB8ue170006INS_9allocatorINS_12basic_stringIcNS_11char_traitsIcEENS1_IcEEEEEEEENS_19__allocation_resultINS_16allocator_traitsIT_E7pointerEEERSA_m, symObjAddr: 0x2A94, symBinAddr: 0x100010DE0, symSize: 0x40 }
  - { offsetInCU: 0x5CB3, offset: 0x31503, size: 0x8, addend: 0x0, symName: __ZNSt3__142__uninitialized_allocator_move_if_noexceptB8ue170006INS_9allocatorINS_12basic_stringIcNS_11char_traitsIcEENS1_IcEEEEEENS_16reverse_iteratorIPS6_EESA_SA_EET2_RT_T0_T1_SB_, symObjAddr: 0x2D30, symBinAddr: 0x100010F98, symSize: 0x12C }
  - { offsetInCU: 0x5D53, offset: 0x315A3, size: 0x8, addend: 0x0, symName: __ZNSt3__14swapB8ue170006IPNS_12basic_stringIcNS_11char_traitsIcEENS_9allocatorIcEEEEEENS_9enable_ifIXaasr21is_move_constructibleIT_EE5valuesr18is_move_assignableIS9_EE5valueEvE4typeERS9_SC_, symObjAddr: 0x2EA8, symBinAddr: 0x100011110, symSize: 0x3C }
  - { offsetInCU: 0x5DA4, offset: 0x315F4, size: 0x8, addend: 0x0, symName: __ZNSt3__122__make_exception_guardB8ue170006INS_29_AllocatorDestroyRangeReverseINS_9allocatorINS_12basic_stringIcNS_11char_traitsIcEENS2_IcEEEEEENS_16reverse_iteratorIPS7_EEEEEENS_28__exception_guard_exceptionsIT_EESE_, symObjAddr: 0x2FAC, symBinAddr: 0x100011214, symSize: 0x4C }
  - { offsetInCU: 0x5DDA, offset: 0x3162A, size: 0x8, addend: 0x0, symName: __ZNSt3__1neB8ue170006IPNS_12basic_stringIcNS_11char_traitsIcEENS_9allocatorIcEEEES7_EEbRKNS_16reverse_iteratorIT_EERKNS8_IT0_EE, symObjAddr: 0x303C, symBinAddr: 0x1000112A4, symSize: 0x48 }
  - { offsetInCU: 0x5E26, offset: 0x31676, size: 0x8, addend: 0x0, symName: __ZNSt3__112__to_addressB8ue170006INS_16reverse_iteratorIPNS_12basic_stringIcNS_11char_traitsIcEENS_9allocatorIcEEEEEEvEEu7__decayIDTclsr19__to_address_helperIT_EE6__callclsr3stdE7declvalIRKSA_EEEEESC_, symObjAddr: 0x3084, symBinAddr: 0x1000112EC, symSize: 0x24 }
  - { offsetInCU: 0x5E85, offset: 0x316D5, size: 0x8, addend: 0x0, symName: __ZNSt3__119__allocator_destroyB8ue170006INS_9allocatorINS_12basic_stringIcNS_11char_traitsIcEENS1_IcEEEEEENS_16reverse_iteratorINS8_IPS6_EEEESB_EEvRT_T0_T1_, symObjAddr: 0x3334, symBinAddr: 0x10001159C, symSize: 0x70 }
  - { offsetInCU: 0x5EEA, offset: 0x3173A, size: 0x8, addend: 0x0, symName: __ZNSt3__1neB8ue170006INS_16reverse_iteratorIPNS_12basic_stringIcNS_11char_traitsIcEENS_9allocatorIcEEEEEES9_EEbRKNS1_IT_EERKNS1_IT0_EE, symObjAddr: 0x33E0, symBinAddr: 0x100011648, symSize: 0x60 }
  - { offsetInCU: 0x5F36, offset: 0x31786, size: 0x8, addend: 0x0, symName: __ZNSt3__112__to_addressB8ue170006INS_16reverse_iteratorINS1_IPNS_12basic_stringIcNS_11char_traitsIcEENS_9allocatorIcEEEEEEEEvEEu7__decayIDTclsr19__to_address_helperIT_EE6__callclsr3stdE7declvalIRKSB_EEEEESD_, symObjAddr: 0x3440, symBinAddr: 0x1000116A8, symSize: 0x24 }
  - { offsetInCU: 0x6428, offset: 0x31C78, size: 0x8, addend: 0x0, symName: __ZNSt3__16vectorINS_12basic_stringIcNS_11char_traitsIcEENS_9allocatorIcEEEENS4_IS6_EEE26__swap_out_circular_bufferERNS_14__split_bufferIS6_RS7_EE, symObjAddr: 0x24F0, symBinAddr: 0x100010A70, symSize: 0x110 }
  - { offsetInCU: 0x8342, offset: 0x33B92, size: 0x8, addend: 0x0, symName: __ZN6seneca13CustomerOrderC2Ev, symObjAddr: 0x0, symBinAddr: 0x10000F0F4, symSize: 0x78 }
  - { offsetInCU: 0x8373, offset: 0x33BC3, size: 0x8, addend: 0x0, symName: __ZN6seneca13CustomerOrderC1Ev, symObjAddr: 0xAC, symBinAddr: 0x10000F16C, symSize: 0x2C }
  - { offsetInCU: 0x839F, offset: 0x33BEF, size: 0x8, addend: 0x0, symName: __ZN6seneca13CustomerOrderC2ERKS0_, symObjAddr: 0xD8, symBinAddr: 0x10000F198, symSize: 0xC8 }
  - { offsetInCU: 0x83D5, offset: 0x33C25, size: 0x8, addend: 0x0, symName: __ZN6seneca13CustomerOrderC1ERKS0_, symObjAddr: 0x1CC, symBinAddr: 0x10000F260, symSize: 0x34 }
  - { offsetInCU: 0x840B, offset: 0x33C5B, size: 0x8, addend: 0x0, symName: __ZN6seneca13CustomerOrderC2ERKNSt3__112basic_stringIcNS1_11char_traitsIcEENS1_9allocatorIcEEEE, symObjAddr: 0x200, symBinAddr: 0x10000F294, symSize: 0x2C4 }
  - { offsetInCU: 0x84A1, offset: 0x33CF1, size: 0x8, addend: 0x0, symName: __ZNSt3__16vectorINS_12basic_stringIcNS_11char_traitsIcEENS_9allocatorIcEEEENS4_IS6_EEEC1B8ue170006Ev, symObjAddr: 0x524, symBinAddr: 0x10000F558, symSize: 0x2C }
  - { offsetInCU: 0x84CB, offset: 0x33D1B, size: 0x8, addend: 0x0, symName: __ZNSt3__16vectorINS_12basic_stringIcNS_11char_traitsIcEENS_9allocatorIcEEEENS4_IS6_EEE9push_backB8ue170006EOS6_, symObjAddr: 0x550, symBinAddr: 0x10000F584, symSize: 0x6C }
  - { offsetInCU: 0x8502, offset: 0x33D52, size: 0x8, addend: 0x0, symName: __ZNKSt3__16vectorINS_12basic_stringIcNS_11char_traitsIcEENS_9allocatorIcEEEENS4_IS6_EEE4sizeB8ue170006Ev, symObjAddr: 0x5BC, symBinAddr: 0x10000F5F0, symSize: 0x28 }
  - { offsetInCU: 0x8528, offset: 0x33D78, size: 0x8, addend: 0x0, symName: __ZNSt3__16vectorINS_12basic_stringIcNS_11char_traitsIcEENS_9allocatorIcEEEENS4_IS6_EEEixB8ue170006Em, symObjAddr: 0x5E4, symBinAddr: 0x10000F618, symSize: 0x2C }
  - { offsetInCU: 0x855F, offset: 0x33DAF, size: 0x8, addend: 0x0, symName: __ZN6seneca4ItemC1ERKNSt3__112basic_stringIcNS1_11char_traitsIcEENS1_9allocatorIcEEEE, symObjAddr: 0x610, symBinAddr: 0x10000F644, symSize: 0x34 }
  - { offsetInCU: 0x8597, offset: 0x33DE7, size: 0x8, addend: 0x0, symName: __ZNSt3__16vectorINS_12basic_stringIcNS_11char_traitsIcEENS_9allocatorIcEEEENS4_IS6_EEED1B8ue170006Ev, symObjAddr: 0x644, symBinAddr: 0x10000F678, symSize: 0x2C }
  - { offsetInCU: 0x85C1, offset: 0x33E11, size: 0x8, addend: 0x0, symName: __ZN6seneca13CustomerOrderC1ERKNSt3__112basic_stringIcNS1_11char_traitsIcEENS1_9allocatorIcEEEE, symObjAddr: 0x670, symBinAddr: 0x10000F6A4, symSize: 0x34 }
  - { offsetInCU: 0x85FB, offset: 0x33E4B, size: 0x8, addend: 0x0, symName: __ZN6seneca13CustomerOrderD2Ev, symObjAddr: 0x6A4, symBinAddr: 0x10000F6D8, symSize: 0xD8 }
  - { offsetInCU: 0x8643, offset: 0x33E93, size: 0x8, addend: 0x0, symName: __ZN6seneca4ItemD1Ev, symObjAddr: 0x77C, symBinAddr: 0x10000F7B0, symSize: 0x2C }
  - { offsetInCU: 0x866F, offset: 0x33EBF, size: 0x8, addend: 0x0, symName: __ZN6seneca13CustomerOrderD1Ev, symObjAddr: 0x7A8, symBinAddr: 0x10000F7DC, symSize: 0x2C }
  - { offsetInCU: 0x869B, offset: 0x33EEB, size: 0x8, addend: 0x0, symName: __ZN6seneca13CustomerOrderC2EOS0_, symObjAddr: 0x7D4, symBinAddr: 0x10000F808, symSize: 0x50 }
  - { offsetInCU: 0x86D5, offset: 0x33F25, size: 0x8, addend: 0x0, symName: __ZN6seneca13CustomerOrderaSEOS0_, symObjAddr: 0x824, symBinAddr: 0x10000F858, symSize: 0x128 }
  - { offsetInCU: 0x8727, offset: 0x33F77, size: 0x8, addend: 0x0, symName: __ZN6seneca13CustomerOrderC1EOS0_, symObjAddr: 0x94C, symBinAddr: 0x10000F980, symSize: 0x34 }
  - { offsetInCU: 0x8761, offset: 0x33FB1, size: 0x8, addend: 0x0, symName: __ZNK6seneca13CustomerOrder13isOrderFilledEv, symObjAddr: 0x980, symBinAddr: 0x10000F9B4, symSize: 0x9C }
  - { offsetInCU: 0x87A5, offset: 0x33FF5, size: 0x8, addend: 0x0, symName: __ZNK6seneca13CustomerOrder12isItemFilledERKNSt3__112basic_stringIcNS1_11char_traitsIcEENS1_9allocatorIcEEEE, symObjAddr: 0xA1C, symBinAddr: 0x10000FA50, symSize: 0xCC }
  - { offsetInCU: 0x87F7, offset: 0x34047, size: 0x8, addend: 0x0, symName: __ZN6seneca13CustomerOrder8fillItemERNS_7StationERNSt3__113basic_ostreamIcNS3_11char_traitsIcEEEE, symObjAddr: 0xC30, symBinAddr: 0x10000FC64, symSize: 0x1C4 }
  - { offsetInCU: 0x8857, offset: 0x340A7, size: 0x8, addend: 0x0, symName: __ZNK6seneca13CustomerOrder7displayERNSt3__113basic_ostreamIcNS1_11char_traitsIcEEEE, symObjAddr: 0xE88, symBinAddr: 0x10000FE28, symSize: 0x1C0 }
  - { offsetInCU: 0x88A9, offset: 0x340F9, size: 0x8, addend: 0x0, symName: __ZN6seneca4ItemC2ERKNSt3__112basic_stringIcNS1_11char_traitsIcEENS1_9allocatorIcEEEE, symObjAddr: 0x11DC, symBinAddr: 0x10000FFE8, symSize: 0x3C }
  - { offsetInCU: 0x88E1, offset: 0x34131, size: 0x8, addend: 0x0, symName: __ZN6seneca4ItemD2Ev, symObjAddr: 0x1218, symBinAddr: 0x100010024, symSize: 0x2C }
  - { offsetInCU: 0x8913, offset: 0x34163, size: 0x8, addend: 0x0, symName: __ZNSt3__16vectorINS_12basic_stringIcNS_11char_traitsIcEENS_9allocatorIcEEEENS4_IS6_EEEC2B8ue170006Ev, symObjAddr: 0x1A54, symBinAddr: 0x100010050, symSize: 0x4C }
  - { offsetInCU: 0x8943, offset: 0x34193, size: 0x8, addend: 0x0, symName: __ZNSt3__117__compressed_pairIPNS_12basic_stringIcNS_11char_traitsIcEENS_9allocatorIcEEEENS4_IS6_EEEC1B8ue170006IDnNS_18__default_init_tagEEEOT_OT0_, symObjAddr: 0x1AA0, symBinAddr: 0x10001009C, symSize: 0x3C }
  - { offsetInCU: 0x899B, offset: 0x341EB, size: 0x8, addend: 0x0, symName: __ZNSt3__117__compressed_pairIPNS_12basic_stringIcNS_11char_traitsIcEENS_9allocatorIcEEEENS4_IS6_EEEC2B8ue170006IDnNS_18__default_init_tagEEEOT_OT0_, symObjAddr: 0x1ADC, symBinAddr: 0x1000100D8, symSize: 0x40 }
  - { offsetInCU: 0x89F3, offset: 0x34243, size: 0x8, addend: 0x0, symName: __ZNSt3__122__compressed_pair_elemIPNS_12basic_stringIcNS_11char_traitsIcEENS_9allocatorIcEEEELi0ELb0EEC2B8ue170006IDnvEEOT_, symObjAddr: 0x1B1C, symBinAddr: 0x100010118, symSize: 0x1C }
  - { offsetInCU: 0x8A35, offset: 0x34285, size: 0x8, addend: 0x0, symName: __ZNSt3__122__compressed_pair_elemINS_9allocatorINS_12basic_stringIcNS_11char_traitsIcEENS1_IcEEEEEELi1ELb1EEC2B8ue170006ENS_18__default_init_tagE, symObjAddr: 0x1B38, symBinAddr: 0x100010134, symSize: 0x2C }
  - { offsetInCU: 0x8A69, offset: 0x342B9, size: 0x8, addend: 0x0, symName: __ZNSt3__19allocatorINS_12basic_stringIcNS_11char_traitsIcEENS0_IcEEEEEC2B8ue170006Ev, symObjAddr: 0x1B64, symBinAddr: 0x100010160, symSize: 0x2C }
  - { offsetInCU: 0x8A93, offset: 0x342E3, size: 0x8, addend: 0x0, symName: __ZNSt3__116__non_trivial_ifILb1ENS_9allocatorINS_12basic_stringIcNS_11char_traitsIcEENS1_IcEEEEEEEC2B8ue170006Ev, symObjAddr: 0x1B90, symBinAddr: 0x10001018C, symSize: 0x14 }
  - { offsetInCU: 0x8ABD, offset: 0x3430D, size: 0x8, addend: 0x0, symName: __ZNSt3__16vectorINS_12basic_stringIcNS_11char_traitsIcEENS_9allocatorIcEEEENS4_IS6_EEED2B8ue170006Ev, symObjAddr: 0x1BA4, symBinAddr: 0x1000101A0, symSize: 0x44 }
  - { offsetInCU: 0x8AE7, offset: 0x34337, size: 0x8, addend: 0x0, symName: __ZNSt3__16vectorINS_12basic_stringIcNS_11char_traitsIcEENS_9allocatorIcEEEENS4_IS6_EEE16__destroy_vectorC1B8ue170006ERS8_, symObjAddr: 0x1BE8, symBinAddr: 0x1000101E4, symSize: 0x34 }
  - { offsetInCU: 0x8B20, offset: 0x34370, size: 0x8, addend: 0x0, symName: __ZNSt3__16vectorINS_12basic_stringIcNS_11char_traitsIcEENS_9allocatorIcEEEENS4_IS6_EEE16__destroy_vectorclB8ue170006Ev, symObjAddr: 0x1C1C, symBinAddr: 0x100010218, symSize: 0x90 }
  - { offsetInCU: 0x8B46, offset: 0x34396, size: 0x8, addend: 0x0, symName: __ZNSt3__16vectorINS_12basic_stringIcNS_11char_traitsIcEENS_9allocatorIcEEEENS4_IS6_EEE16__destroy_vectorC2B8ue170006ERS8_, symObjAddr: 0x1CAC, symBinAddr: 0x1000102A8, symSize: 0x20 }
  - { offsetInCU: 0x8B7F, offset: 0x343CF, size: 0x8, addend: 0x0, symName: __ZNSt3__16vectorINS_12basic_stringIcNS_11char_traitsIcEENS_9allocatorIcEEEENS4_IS6_EEE7__clearB8ue170006Ev, symObjAddr: 0x1CCC, symBinAddr: 0x1000102C8, symSize: 0x28 }
  - { offsetInCU: 0x8BA5, offset: 0x343F5, size: 0x8, addend: 0x0, symName: __ZNKSt3__16vectorINS_12basic_stringIcNS_11char_traitsIcEENS_9allocatorIcEEEENS4_IS6_EEE17__annotate_deleteB8ue170006Ev, symObjAddr: 0x1CF4, symBinAddr: 0x1000102F0, symSize: 0xD4 }
  - { offsetInCU: 0x8BCB, offset: 0x3441B, size: 0x8, addend: 0x0, symName: __ZNSt3__116allocator_traitsINS_9allocatorINS_12basic_stringIcNS_11char_traitsIcEENS1_IcEEEEEEE10deallocateB8ue170006ERS7_PS6_m, symObjAddr: 0x1DC8, symBinAddr: 0x1000103C4, symSize: 0x34 }
  - { offsetInCU: 0x8C0D, offset: 0x3445D, size: 0x8, addend: 0x0, symName: __ZNSt3__16vectorINS_12basic_stringIcNS_11char_traitsIcEENS_9allocatorIcEEEENS4_IS6_EEE7__allocB8ue170006Ev, symObjAddr: 0x1DFC, symBinAddr: 0x1000103F8, symSize: 0x28 }
  - { offsetInCU: 0x8C33, offset: 0x34483, size: 0x8, addend: 0x0, symName: __ZNKSt3__16vectorINS_12basic_stringIcNS_11char_traitsIcEENS_9allocatorIcEEEENS4_IS6_EEE8capacityB8ue170006Ev, symObjAddr: 0x1E24, symBinAddr: 0x100010420, symSize: 0x40 }
  - { offsetInCU: 0x8C59, offset: 0x344A9, size: 0x8, addend: 0x0, symName: __ZNSt3__16vectorINS_12basic_stringIcNS_11char_traitsIcEENS_9allocatorIcEEEENS4_IS6_EEE22__base_destruct_at_endB8ue170006EPS6_, symObjAddr: 0x1E64, symBinAddr: 0x100010460, symSize: 0x8C }
  - { offsetInCU: 0x8C9D, offset: 0x344ED, size: 0x8, addend: 0x0, symName: __ZNSt3__116allocator_traitsINS_9allocatorINS_12basic_stringIcNS_11char_traitsIcEENS1_IcEEEEEEE7destroyB8ue170006IS6_vEEvRS7_PT_, symObjAddr: 0x1EF0, symBinAddr: 0x1000104EC, symSize: 0x2C }
  - { offsetInCU: 0x8CDA, offset: 0x3452A, size: 0x8, addend: 0x0, symName: __ZNSt3__19allocatorINS_12basic_stringIcNS_11char_traitsIcEENS0_IcEEEEE7destroyB8ue170006EPS5_, symObjAddr: 0x1F30, symBinAddr: 0x10001052C, symSize: 0x28 }
  - { offsetInCU: 0x8D0E, offset: 0x3455E, size: 0x8, addend: 0x0, symName: __ZNKSt3__16vectorINS_12basic_stringIcNS_11char_traitsIcEENS_9allocatorIcEEEENS4_IS6_EEE31__annotate_contiguous_containerB8ue170006EPKvSA_SA_SA_, symObjAddr: 0x1F58, symBinAddr: 0x100010554, symSize: 0x20 }
  - { offsetInCU: 0x8D60, offset: 0x345B0, size: 0x8, addend: 0x0, symName: __ZNKSt3__16vectorINS_12basic_stringIcNS_11char_traitsIcEENS_9allocatorIcEEEENS4_IS6_EEE4dataB8ue170006Ev, symObjAddr: 0x1F78, symBinAddr: 0x100010574, symSize: 0x28 }
  - { offsetInCU: 0x8D86, offset: 0x345D6, size: 0x8, addend: 0x0, symName: __ZNSt3__19allocatorINS_12basic_stringIcNS_11char_traitsIcEENS0_IcEEEEE10deallocateB8ue170006EPS5_m, symObjAddr: 0x1FA0, symBinAddr: 0x10001059C, symSize: 0x44 }
  - { offsetInCU: 0x8DC8, offset: 0x34618, size: 0x8, addend: 0x0, symName: __ZNSt3__117__compressed_pairIPNS_12basic_stringIcNS_11char_traitsIcEENS_9allocatorIcEEEENS4_IS6_EEE6secondB8ue170006Ev, symObjAddr: 0x1FE4, symBinAddr: 0x1000105E0, symSize: 0x24 }
  - { offsetInCU: 0x8DEE, offset: 0x3463E, size: 0x8, addend: 0x0, symName: __ZNSt3__122__compressed_pair_elemINS_9allocatorINS_12basic_stringIcNS_11char_traitsIcEENS1_IcEEEEEELi1ELb1EE5__getB8ue170006Ev, symObjAddr: 0x2008, symBinAddr: 0x100010604, symSize: 0x14 }
  - { offsetInCU: 0x8E14, offset: 0x34664, size: 0x8, addend: 0x0, symName: __ZNKSt3__16vectorINS_12basic_stringIcNS_11char_traitsIcEENS_9allocatorIcEEEENS4_IS6_EEE9__end_capB8ue170006Ev, symObjAddr: 0x201C, symBinAddr: 0x100010618, symSize: 0x28 }
  - { offsetInCU: 0x8E3A, offset: 0x3468A, size: 0x8, addend: 0x0, symName: __ZNKSt3__117__compressed_pairIPNS_12basic_stringIcNS_11char_traitsIcEENS_9allocatorIcEEEENS4_IS6_EEE5firstB8ue170006Ev, symObjAddr: 0x2044, symBinAddr: 0x100010640, symSize: 0x24 }
  - { offsetInCU: 0x8E60, offset: 0x346B0, size: 0x8, addend: 0x0, symName: __ZNKSt3__122__compressed_pair_elemIPNS_12basic_stringIcNS_11char_traitsIcEENS_9allocatorIcEEEELi0ELb0EE5__getB8ue170006Ev, symObjAddr: 0x2068, symBinAddr: 0x100010664, symSize: 0x14 }
  - { offsetInCU: 0x8E86, offset: 0x346D6, size: 0x8, addend: 0x0, symName: __ZNSt3__16vectorINS_12basic_stringIcNS_11char_traitsIcEENS_9allocatorIcEEEENS4_IS6_EEE9__end_capB8ue170006Ev, symObjAddr: 0x207C, symBinAddr: 0x100010678, symSize: 0x28 }
  - { offsetInCU: 0x8EB2, offset: 0x34702, size: 0x8, addend: 0x0, symName: __ZNSt3__16vectorINS_12basic_stringIcNS_11char_traitsIcEENS_9allocatorIcEEEENS4_IS6_EEE22__construct_one_at_endB8ue170006IJS6_EEEvDpOT_, symObjAddr: 0x20A4, symBinAddr: 0x1000106A0, symSize: 0x90 }
  - { offsetInCU: 0x8F01, offset: 0x34751, size: 0x8, addend: 0x0, symName: __ZNSt3__16vectorINS_12basic_stringIcNS_11char_traitsIcEENS_9allocatorIcEEEENS4_IS6_EEE21__push_back_slow_pathIS6_EEvOT_, symObjAddr: 0x2134, symBinAddr: 0x100010730, symSize: 0xD8 }
  - { offsetInCU: 0x8F5F, offset: 0x347AF, size: 0x8, addend: 0x0, symName: __ZNSt3__117__compressed_pairIPNS_12basic_stringIcNS_11char_traitsIcEENS_9allocatorIcEEEENS4_IS6_EEE5firstB8ue170006Ev, symObjAddr: 0x220C, symBinAddr: 0x100010808, symSize: 0x24 }
  - { offsetInCU: 0x8F85, offset: 0x347D5, size: 0x8, addend: 0x0, symName: __ZNSt3__122__compressed_pair_elemIPNS_12basic_stringIcNS_11char_traitsIcEENS_9allocatorIcEEEELi0ELb0EE5__getB8ue170006Ev, symObjAddr: 0x2230, symBinAddr: 0x10001082C, symSize: 0x14 }
  - { offsetInCU: 0x8FC4, offset: 0x34814, size: 0x8, addend: 0x0, symName: __ZNSt3__16vectorINS_12basic_stringIcNS_11char_traitsIcEENS_9allocatorIcEEEENS4_IS6_EEE21_ConstructTransactionC1B8ue170006ERS8_m, symObjAddr: 0x2244, symBinAddr: 0x100010840, symSize: 0x3C }
  - { offsetInCU: 0x900C, offset: 0x3485C, size: 0x8, addend: 0x0, symName: __ZNSt3__116allocator_traitsINS_9allocatorINS_12basic_stringIcNS_11char_traitsIcEENS1_IcEEEEEEE9constructB8ue170006IS6_JS6_EvEEvRS7_PT_DpOT0_, symObjAddr: 0x2280, symBinAddr: 0x10001087C, symSize: 0x34 }
  - { offsetInCU: 0x9063, offset: 0x348B3, size: 0x8, addend: 0x0, symName: __ZNSt3__16vectorINS_12basic_stringIcNS_11char_traitsIcEENS_9allocatorIcEEEENS4_IS6_EEE21_ConstructTransactionD1B8ue170006Ev, symObjAddr: 0x22B4, symBinAddr: 0x1000108B0, symSize: 0x2C }
  - { offsetInCU: 0x908D, offset: 0x348DD, size: 0x8, addend: 0x0, symName: __ZNSt3__16vectorINS_12basic_stringIcNS_11char_traitsIcEENS_9allocatorIcEEEENS4_IS6_EEE21_ConstructTransactionC2B8ue170006ERS8_m, symObjAddr: 0x22E0, symBinAddr: 0x1000108DC, symSize: 0x4C }
  - { offsetInCU: 0x90D5, offset: 0x34925, size: 0x8, addend: 0x0, symName: __ZNSt3__19allocatorINS_12basic_stringIcNS_11char_traitsIcEENS0_IcEEEEE9constructB8ue170006IS5_JS5_EEEvPT_DpOT0_, symObjAddr: 0x232C, symBinAddr: 0x100010928, symSize: 0x30 }
  - { offsetInCU: 0x912B, offset: 0x3497B, size: 0x8, addend: 0x0, symName: __ZNSt3__16vectorINS_12basic_stringIcNS_11char_traitsIcEENS_9allocatorIcEEEENS4_IS6_EEE21_ConstructTransactionD2B8ue170006Ev, symObjAddr: 0x23D8, symBinAddr: 0x100010958, symSize: 0x20 }
  - { offsetInCU: 0x9155, offset: 0x349A5, size: 0x8, addend: 0x0, symName: __ZNKSt3__16vectorINS_12basic_stringIcNS_11char_traitsIcEENS_9allocatorIcEEEENS4_IS6_EEE11__recommendB8ue170006Em, symObjAddr: 0x23F8, symBinAddr: 0x100010978, symSize: 0xB4 }
  - { offsetInCU: 0x91AA, offset: 0x349FA, size: 0x8, addend: 0x0, symName: __ZNSt3__114__split_bufferINS_12basic_stringIcNS_11char_traitsIcEENS_9allocatorIcEEEERNS4_IS6_EEEC1EmmS8_, symObjAddr: 0x24AC, symBinAddr: 0x100010A2C, symSize: 0x44 }
  - { offsetInCU: 0x9200, offset: 0x34A50, size: 0x8, addend: 0x0, symName: __ZNSt3__114__split_bufferINS_12basic_stringIcNS_11char_traitsIcEENS_9allocatorIcEEEERNS4_IS6_EEED1Ev, symObjAddr: 0x2600, symBinAddr: 0x100010B80, symSize: 0x2C }
  - { offsetInCU: 0x922C, offset: 0x34A7C, size: 0x8, addend: 0x0, symName: __ZNKSt3__16vectorINS_12basic_stringIcNS_11char_traitsIcEENS_9allocatorIcEEEENS4_IS6_EEE8max_sizeEv, symObjAddr: 0x262C, symBinAddr: 0x100010BAC, symSize: 0x60 }
  - { offsetInCU: 0x9254, offset: 0x34AA4, size: 0x8, addend: 0x0, symName: __ZNKSt3__16vectorINS_12basic_stringIcNS_11char_traitsIcEENS_9allocatorIcEEEENS4_IS6_EEE20__throw_length_errorB8ue170006Ev, symObjAddr: 0x268C, symBinAddr: 0x100010C0C, symSize: 0x1C }
  - { offsetInCU: 0x9284, offset: 0x34AD4, size: 0x8, addend: 0x0, symName: __ZNSt3__116allocator_traitsINS_9allocatorINS_12basic_stringIcNS_11char_traitsIcEENS1_IcEEEEEEE8max_sizeB8ue170006IS7_vEEmRKS7_, symObjAddr: 0x2700, symBinAddr: 0x100010C28, symSize: 0x24 }
  - { offsetInCU: 0x92B2, offset: 0x34B02, size: 0x8, addend: 0x0, symName: __ZNKSt3__16vectorINS_12basic_stringIcNS_11char_traitsIcEENS_9allocatorIcEEEENS4_IS6_EEE7__allocB8ue170006Ev, symObjAddr: 0x2724, symBinAddr: 0x100010C4C, symSize: 0x28 }
  - { offsetInCU: 0x92D8, offset: 0x34B28, size: 0x8, addend: 0x0, symName: __ZNKSt3__19allocatorINS_12basic_stringIcNS_11char_traitsIcEENS0_IcEEEEE8max_sizeB8ue170006Ev, symObjAddr: 0x27E8, symBinAddr: 0x100010C74, symSize: 0x18 }
  - { offsetInCU: 0x92FE, offset: 0x34B4E, size: 0x8, addend: 0x0, symName: __ZNKSt3__117__compressed_pairIPNS_12basic_stringIcNS_11char_traitsIcEENS_9allocatorIcEEEENS4_IS6_EEE6secondB8ue170006Ev, symObjAddr: 0x2800, symBinAddr: 0x100010C8C, symSize: 0x24 }
  - { offsetInCU: 0x9324, offset: 0x34B74, size: 0x8, addend: 0x0, symName: __ZNKSt3__122__compressed_pair_elemINS_9allocatorINS_12basic_stringIcNS_11char_traitsIcEENS1_IcEEEEEELi1ELb1EE5__getB8ue170006Ev, symObjAddr: 0x2824, symBinAddr: 0x100010CB0, symSize: 0x14 }
  - { offsetInCU: 0x934A, offset: 0x34B9A, size: 0x8, addend: 0x0, symName: __ZNSt3__114__split_bufferINS_12basic_stringIcNS_11char_traitsIcEENS_9allocatorIcEEEERNS4_IS6_EEEC2EmmS8_, symObjAddr: 0x2978, symBinAddr: 0x100010CC4, symSize: 0xE0 }
  - { offsetInCU: 0x93BD, offset: 0x34C0D, size: 0x8, addend: 0x0, symName: __ZNSt3__117__compressed_pairIPNS_12basic_stringIcNS_11char_traitsIcEENS_9allocatorIcEEEERNS4_IS6_EEEC1B8ue170006IDnS9_EEOT_OT0_, symObjAddr: 0x2A58, symBinAddr: 0x100010DA4, symSize: 0x3C }
  - { offsetInCU: 0x9415, offset: 0x34C65, size: 0x8, addend: 0x0, symName: __ZNSt3__114__split_bufferINS_12basic_stringIcNS_11char_traitsIcEENS_9allocatorIcEEEERNS4_IS6_EEE7__allocB8ue170006Ev, symObjAddr: 0x2AD4, symBinAddr: 0x100010E20, symSize: 0x28 }
  - { offsetInCU: 0x943B, offset: 0x34C8B, size: 0x8, addend: 0x0, symName: __ZNSt3__114__split_bufferINS_12basic_stringIcNS_11char_traitsIcEENS_9allocatorIcEEEERNS4_IS6_EEE9__end_capB8ue170006Ev, symObjAddr: 0x2AFC, symBinAddr: 0x100010E48, symSize: 0x28 }
  - { offsetInCU: 0x9461, offset: 0x34CB1, size: 0x8, addend: 0x0, symName: __ZNSt3__117__compressed_pairIPNS_12basic_stringIcNS_11char_traitsIcEENS_9allocatorIcEEEERNS4_IS6_EEEC2B8ue170006IDnS9_EEOT_OT0_, symObjAddr: 0x2B24, symBinAddr: 0x100010E70, symSize: 0x48 }
  - { offsetInCU: 0x94B9, offset: 0x34D09, size: 0x8, addend: 0x0, symName: __ZNSt3__122__compressed_pair_elemIRNS_9allocatorINS_12basic_stringIcNS_11char_traitsIcEENS1_IcEEEEEELi1ELb0EEC2B8ue170006IS8_vEEOT_, symObjAddr: 0x2B6C, symBinAddr: 0x100010EB8, symSize: 0x20 }
  - { offsetInCU: 0x94FB, offset: 0x34D4B, size: 0x8, addend: 0x0, symName: __ZNSt3__19allocatorINS_12basic_stringIcNS_11char_traitsIcEENS0_IcEEEEE8allocateB8ue170006Em, symObjAddr: 0x2B8C, symBinAddr: 0x100010ED8, symSize: 0x5C }
  - { offsetInCU: 0x952F, offset: 0x34D7F, size: 0x8, addend: 0x0, symName: __ZNSt3__117__compressed_pairIPNS_12basic_stringIcNS_11char_traitsIcEENS_9allocatorIcEEEERNS4_IS6_EEE6secondB8ue170006Ev, symObjAddr: 0x2CCC, symBinAddr: 0x100010F34, symSize: 0x28 }
  - { offsetInCU: 0x9555, offset: 0x34DA5, size: 0x8, addend: 0x0, symName: __ZNSt3__122__compressed_pair_elemIRNS_9allocatorINS_12basic_stringIcNS_11char_traitsIcEENS1_IcEEEEEELi1ELb0EE5__getB8ue170006Ev, symObjAddr: 0x2CF4, symBinAddr: 0x100010F5C, symSize: 0x18 }
  - { offsetInCU: 0x957B, offset: 0x34DCB, size: 0x8, addend: 0x0, symName: __ZNSt3__117__compressed_pairIPNS_12basic_stringIcNS_11char_traitsIcEENS_9allocatorIcEEEERNS4_IS6_EEE5firstB8ue170006Ev, symObjAddr: 0x2D0C, symBinAddr: 0x100010F74, symSize: 0x24 }
  - { offsetInCU: 0x95A1, offset: 0x34DF1, size: 0x8, addend: 0x0, symName: __ZNSt3__116reverse_iteratorIPNS_12basic_stringIcNS_11char_traitsIcEENS_9allocatorIcEEEEEC1B8ue170006ES7_, symObjAddr: 0x2E5C, symBinAddr: 0x1000110C4, symSize: 0x34 }
  - { offsetInCU: 0x95D9, offset: 0x34E29, size: 0x8, addend: 0x0, symName: __ZNKSt3__116reverse_iteratorIPNS_12basic_stringIcNS_11char_traitsIcEENS_9allocatorIcEEEEE4baseB8ue170006Ev, symObjAddr: 0x2E90, symBinAddr: 0x1000110F8, symSize: 0x18 }
  - { offsetInCU: 0x95FF, offset: 0x34E4F, size: 0x8, addend: 0x0, symName: __ZNKSt3__16vectorINS_12basic_stringIcNS_11char_traitsIcEENS_9allocatorIcEEEENS4_IS6_EEE14__annotate_newB8ue170006Em, symObjAddr: 0x2EE4, symBinAddr: 0x10001114C, symSize: 0xC8 }
  - { offsetInCU: 0x9634, offset: 0x34E84, size: 0x8, addend: 0x0, symName: __ZNSt3__129_AllocatorDestroyRangeReverseINS_9allocatorINS_12basic_stringIcNS_11char_traitsIcEENS1_IcEEEEEENS_16reverse_iteratorIPS6_EEEC1B8ue170006ERS7_RSA_SD_, symObjAddr: 0x2FF8, symBinAddr: 0x100011260, symSize: 0x44 }
  - { offsetInCU: 0x968B, offset: 0x34EDB, size: 0x8, addend: 0x0, symName: __ZNKSt3__116reverse_iteratorIPNS_12basic_stringIcNS_11char_traitsIcEENS_9allocatorIcEEEEEdeB8ue170006Ev, symObjAddr: 0x30A8, symBinAddr: 0x100011310, symSize: 0x28 }
  - { offsetInCU: 0x96BF, offset: 0x34F0F, size: 0x8, addend: 0x0, symName: __ZNSt3__116reverse_iteratorIPNS_12basic_stringIcNS_11char_traitsIcEENS_9allocatorIcEEEEEppB8ue170006Ev, symObjAddr: 0x30D0, symBinAddr: 0x100011338, symSize: 0x20 }
  - { offsetInCU: 0x96E5, offset: 0x34F35, size: 0x8, addend: 0x0, symName: __ZNSt3__128__exception_guard_exceptionsINS_29_AllocatorDestroyRangeReverseINS_9allocatorINS_12basic_stringIcNS_11char_traitsIcEENS2_IcEEEEEENS_16reverse_iteratorIPS7_EEEEE10__completeB8ue170006Ev, symObjAddr: 0x30F0, symBinAddr: 0x100011358, symSize: 0x1C }
  - { offsetInCU: 0x970B, offset: 0x34F5B, size: 0x8, addend: 0x0, symName: __ZNSt3__128__exception_guard_exceptionsINS_29_AllocatorDestroyRangeReverseINS_9allocatorINS_12basic_stringIcNS_11char_traitsIcEENS2_IcEEEEEENS_16reverse_iteratorIPS7_EEEEED1B8ue170006Ev, symObjAddr: 0x310C, symBinAddr: 0x100011374, symSize: 0x2C }
  - { offsetInCU: 0x9735, offset: 0x34F85, size: 0x8, addend: 0x0, symName: __ZNSt3__128__exception_guard_exceptionsINS_29_AllocatorDestroyRangeReverseINS_9allocatorINS_12basic_stringIcNS_11char_traitsIcEENS2_IcEEEEEENS_16reverse_iteratorIPS7_EEEEEC1B8ue170006ESC_, symObjAddr: 0x3138, symBinAddr: 0x1000113A0, symSize: 0x34 }
  - { offsetInCU: 0x976E, offset: 0x34FBE, size: 0x8, addend: 0x0, symName: __ZNSt3__128__exception_guard_exceptionsINS_29_AllocatorDestroyRangeReverseINS_9allocatorINS_12basic_stringIcNS_11char_traitsIcEENS2_IcEEEEEENS_16reverse_iteratorIPS7_EEEEEC2B8ue170006ESC_, symObjAddr: 0x316C, symBinAddr: 0x1000113D4, symSize: 0x30 }
  - { offsetInCU: 0x97A7, offset: 0x34FF7, size: 0x8, addend: 0x0, symName: __ZNSt3__129_AllocatorDestroyRangeReverseINS_9allocatorINS_12basic_stringIcNS_11char_traitsIcEENS1_IcEEEEEENS_16reverse_iteratorIPS6_EEEC2B8ue170006ERS7_RSA_SD_, symObjAddr: 0x319C, symBinAddr: 0x100011404, symSize: 0x38 }
  - { offsetInCU: 0x9803, offset: 0x35053, size: 0x8, addend: 0x0, symName: __ZNSt3__119__to_address_helperINS_16reverse_iteratorIPNS_12basic_stringIcNS_11char_traitsIcEENS_9allocatorIcEEEEEEvE6__callB8ue170006ERKS9_, symObjAddr: 0x31D4, symBinAddr: 0x10001143C, symSize: 0x38 }
  - { offsetInCU: 0x9826, offset: 0x35076, size: 0x8, addend: 0x0, symName: __ZNKSt3__116reverse_iteratorIPNS_12basic_stringIcNS_11char_traitsIcEENS_9allocatorIcEEEEEptB8ue170006Ev, symObjAddr: 0x320C, symBinAddr: 0x100011474, symSize: 0x24 }
  - { offsetInCU: 0x984C, offset: 0x3509C, size: 0x8, addend: 0x0, symName: __ZNSt3__128__exception_guard_exceptionsINS_29_AllocatorDestroyRangeReverseINS_9allocatorINS_12basic_stringIcNS_11char_traitsIcEENS2_IcEEEEEENS_16reverse_iteratorIPS7_EEEEED2B8ue170006Ev, symObjAddr: 0x3230, symBinAddr: 0x100011498, symSize: 0x50 }
  - { offsetInCU: 0x9876, offset: 0x350C6, size: 0x8, addend: 0x0, symName: __ZNKSt3__129_AllocatorDestroyRangeReverseINS_9allocatorINS_12basic_stringIcNS_11char_traitsIcEENS1_IcEEEEEENS_16reverse_iteratorIPS6_EEEclB8ue170006Ev, symObjAddr: 0x3280, symBinAddr: 0x1000114E8, symSize: 0xB4 }
  - { offsetInCU: 0x989D, offset: 0x350ED, size: 0x8, addend: 0x0, symName: __ZNSt3__116reverse_iteratorINS0_IPNS_12basic_stringIcNS_11char_traitsIcEENS_9allocatorIcEEEEEEEC1B8ue170006ES8_, symObjAddr: 0x33A4, symBinAddr: 0x10001160C, symSize: 0x3C }
  - { offsetInCU: 0x98D5, offset: 0x35125, size: 0x8, addend: 0x0, symName: __ZNSt3__116reverse_iteratorINS0_IPNS_12basic_stringIcNS_11char_traitsIcEENS_9allocatorIcEEEEEEEppB8ue170006Ev, symObjAddr: 0x3464, symBinAddr: 0x1000116CC, symSize: 0x30 }
  - { offsetInCU: 0x98FB, offset: 0x3514B, size: 0x8, addend: 0x0, symName: __ZNKSt3__116reverse_iteratorINS0_IPNS_12basic_stringIcNS_11char_traitsIcEENS_9allocatorIcEEEEEEE4baseB8ue170006Ev, symObjAddr: 0x3494, symBinAddr: 0x1000116FC, symSize: 0x24 }
  - { offsetInCU: 0x9926, offset: 0x35176, size: 0x8, addend: 0x0, symName: __ZNSt3__119__to_address_helperINS_16reverse_iteratorINS1_IPNS_12basic_stringIcNS_11char_traitsIcEENS_9allocatorIcEEEEEEEEvE6__callB8ue170006ERKSA_, symObjAddr: 0x34B8, symBinAddr: 0x100011720, symSize: 0x38 }
  - { offsetInCU: 0x9949, offset: 0x35199, size: 0x8, addend: 0x0, symName: __ZNKSt3__116reverse_iteratorINS0_IPNS_12basic_stringIcNS_11char_traitsIcEENS_9allocatorIcEEEEEEEptB8ue170006Ev, symObjAddr: 0x34F0, symBinAddr: 0x100011758, symSize: 0x24 }
  - { offsetInCU: 0x996F, offset: 0x351BF, size: 0x8, addend: 0x0, symName: __ZNKSt3__116reverse_iteratorINS0_IPNS_12basic_stringIcNS_11char_traitsIcEENS_9allocatorIcEEEEEEEdeB8ue170006Ev, symObjAddr: 0x3514, symBinAddr: 0x10001177C, symSize: 0x34 }
  - { offsetInCU: 0x99A3, offset: 0x351F3, size: 0x8, addend: 0x0, symName: __ZNSt3__116reverse_iteratorIPNS_12basic_stringIcNS_11char_traitsIcEENS_9allocatorIcEEEEEmmB8ue170006Ev, symObjAddr: 0x3548, symBinAddr: 0x1000117B0, symSize: 0x20 }
  - { offsetInCU: 0x99C9, offset: 0x35219, size: 0x8, addend: 0x0, symName: __ZNSt3__116reverse_iteratorINS0_IPNS_12basic_stringIcNS_11char_traitsIcEENS_9allocatorIcEEEEEEEC2B8ue170006ES8_, symObjAddr: 0x3568, symBinAddr: 0x1000117D0, symSize: 0x2C }
  - { offsetInCU: 0x9A01, offset: 0x35251, size: 0x8, addend: 0x0, symName: __ZNSt3__116reverse_iteratorIPNS_12basic_stringIcNS_11char_traitsIcEENS_9allocatorIcEEEEEC2B8ue170006ES7_, symObjAddr: 0x3594, symBinAddr: 0x1000117FC, symSize: 0x28 }
  - { offsetInCU: 0x9A39, offset: 0x35289, size: 0x8, addend: 0x0, symName: __ZNSt3__114__split_bufferINS_12basic_stringIcNS_11char_traitsIcEENS_9allocatorIcEEEERNS4_IS6_EEED2Ev, symObjAddr: 0x35BC, symBinAddr: 0x100011824, symSize: 0x8C }
  - { offsetInCU: 0x9A65, offset: 0x352B5, size: 0x8, addend: 0x0, symName: __ZNSt3__114__split_bufferINS_12basic_stringIcNS_11char_traitsIcEENS_9allocatorIcEEEERNS4_IS6_EEE5clearB8ue170006Ev, symObjAddr: 0x3648, symBinAddr: 0x1000118B0, symSize: 0x28 }
  - { offsetInCU: 0x9A8B, offset: 0x352DB, size: 0x8, addend: 0x0, symName: __ZNKSt3__114__split_bufferINS_12basic_stringIcNS_11char_traitsIcEENS_9allocatorIcEEEERNS4_IS6_EEE8capacityB8ue170006Ev, symObjAddr: 0x3670, symBinAddr: 0x1000118D8, symSize: 0x40 }
  - { offsetInCU: 0x9AB1, offset: 0x35301, size: 0x8, addend: 0x0, symName: __ZNSt3__114__split_bufferINS_12basic_stringIcNS_11char_traitsIcEENS_9allocatorIcEEEERNS4_IS6_EEE17__destruct_at_endB8ue170006EPS6_, symObjAddr: 0x36B0, symBinAddr: 0x100011918, symSize: 0x2C }
  - { offsetInCU: 0x9AE5, offset: 0x35335, size: 0x8, addend: 0x0, symName: __ZNSt3__114__split_bufferINS_12basic_stringIcNS_11char_traitsIcEENS_9allocatorIcEEEERNS4_IS6_EEE17__destruct_at_endB8ue170006EPS6_NS_17integral_constantIbLb0EEE, symObjAddr: 0x36DC, symBinAddr: 0x100011944, symSize: 0x80 }
  - { offsetInCU: 0x9B25, offset: 0x35375, size: 0x8, addend: 0x0, symName: __ZNKSt3__114__split_bufferINS_12basic_stringIcNS_11char_traitsIcEENS_9allocatorIcEEEERNS4_IS6_EEE9__end_capB8ue170006Ev, symObjAddr: 0x375C, symBinAddr: 0x1000119C4, symSize: 0x28 }
  - { offsetInCU: 0x9B4B, offset: 0x3539B, size: 0x8, addend: 0x0, symName: __ZNKSt3__117__compressed_pairIPNS_12basic_stringIcNS_11char_traitsIcEENS_9allocatorIcEEEERNS4_IS6_EEE5firstB8ue170006Ev, symObjAddr: 0x3784, symBinAddr: 0x1000119EC, symSize: 0x24 }
  - { offsetInCU: 0x9B71, offset: 0x353C1, size: 0x8, addend: 0x0, symName: __ZNSt3__111char_traitsIcE7compareB8ue170006EPKcS3_m, symObjAddr: 0x3824, symBinAddr: 0x100011A10, symSize: 0x34 }
  - { offsetInCU: 0x44, offset: 0x354D9, size: 0x8, addend: 0x0, symName: __ZN6seneca9g_pendingE, symObjAddr: 0x358D0, symBinAddr: 0x10001C028, symSize: 0x0 }
  - { offsetInCU: 0x296, offset: 0x3572B, size: 0x8, addend: 0x0, symName: __ZN6seneca11g_completedE, symObjAddr: 0x35900, symBinAddr: 0x10001C058, symSize: 0x0 }
  - { offsetInCU: 0x2B0, offset: 0x35745, size: 0x8, addend: 0x0, symName: __ZN6seneca12g_incompleteE, symObjAddr: 0x35930, symBinAddr: 0x10001C088, symSize: 0x0 }
  - { offsetInCU: 0x7BAB, offset: 0x3D040, size: 0x8, addend: 0x0, symName: __ZN6seneca11Workstation4fillERNSt3__113basic_ostreamIcNS1_11char_traitsIcEEEE, symObjAddr: 0x58, symBinAddr: 0x100011A44, symSize: 0x54 }
  - { offsetInCU: 0x7BE1, offset: 0x3D076, size: 0x8, addend: 0x0, symName: __ZNSt3__15dequeIN6seneca13CustomerOrderENS_9allocatorIS2_EEE5frontEv, symObjAddr: 0xDC, symBinAddr: 0x100011A98, symSize: 0x50 }
  - { offsetInCU: 0x7C09, offset: 0x3D09E, size: 0x8, addend: 0x0, symName: __ZN6seneca11Workstation18attemptToMoveOrderEv, symObjAddr: 0x12C, symBinAddr: 0x100011AE8, symSize: 0x13C }
  - { offsetInCU: 0x7C3F, offset: 0x3D0D4, size: 0x8, addend: 0x0, symName: __ZN6seneca11WorkstationpLEONS_13CustomerOrderE, symObjAddr: 0x268, symBinAddr: 0x100011C24, symSize: 0x38 }
  - { offsetInCU: 0x7C75, offset: 0x3D10A, size: 0x8, addend: 0x0, symName: __ZNSt3__15dequeIN6seneca13CustomerOrderENS_9allocatorIS2_EEE9pop_frontEv, symObjAddr: 0x34C, symBinAddr: 0x100011C5C, symSize: 0xD4 }
  - { offsetInCU: 0x7CCA, offset: 0x3D15F, size: 0x8, addend: 0x0, symName: __ZN6seneca11Workstation14setNextStationEPS0_, symObjAddr: 0x420, symBinAddr: 0x100011D30, symSize: 0x20 }
  - { offsetInCU: 0x7D00, offset: 0x3D195, size: 0x8, addend: 0x0, symName: __ZNK6seneca11Workstation14getNextStationEv, symObjAddr: 0x440, symBinAddr: 0x100011D50, symSize: 0x18 }
  - { offsetInCU: 0x7D28, offset: 0x3D1BD, size: 0x8, addend: 0x0, symName: __ZNK6seneca11Workstation7displayERNSt3__113basic_ostreamIcNS1_11char_traitsIcEEEE, symObjAddr: 0x458, symBinAddr: 0x100011D68, symSize: 0xAC }
  - { offsetInCU: 0x7D72, offset: 0x3D207, size: 0x8, addend: 0x0, symName: __ZNKSt3__15dequeIN6seneca13CustomerOrderENS_9allocatorIS2_EEE23__annotate_shrink_frontB8ue170006Emm, symObjAddr: 0x4724, symBinAddr: 0x100011E14, symSize: 0x70 }
  - { offsetInCU: 0x7DB6, offset: 0x3D24B, size: 0x8, addend: 0x0, symName: __ZNSt3__15dequeIN6seneca13CustomerOrderENS_9allocatorIS2_EEE26__maybe_remove_front_spareB8ue170006Eb, symObjAddr: 0x4794, symBinAddr: 0x100011E84, symSize: 0xEC }
  - { offsetInCU: 0x7DEB, offset: 0x3D280, size: 0x8, addend: 0x0, symName: __ZNKSt3__15dequeIN6seneca13CustomerOrderENS_9allocatorIS2_EEE20__front_spare_blocksB8ue170006Ev, symObjAddr: 0x4880, symBinAddr: 0x100011F70, symSize: 0x2C }
  - { offsetInCU: 0xE1F6, offset: 0x4B4C8, size: 0x8, addend: 0x0, symName: __ZNSt3__17advanceB8ue170006IPPN6seneca11WorkstationEllvEEvRT_T0_, symObjAddr: 0x6824, symBinAddr: 0x100015758, symSize: 0x38 }
  - { offsetInCU: 0xF860, offset: 0x4CB32, size: 0x8, addend: 0x0, symName: __ZNSt3__1neB8ue170006IPNS_4pairINS_12basic_stringIcNS_11char_traitsIcEENS_9allocatorIcEEEES7_EEEEbRKNS_11__wrap_iterIT_EESE_, symObjAddr: 0x9CC, symBinAddr: 0x1000128C8, symSize: 0x34 }
  - { offsetInCU: 0xF8A3, offset: 0x4CB75, size: 0x8, addend: 0x0, symName: __ZNSt3__13getB8ue170006ILm0ENS_12basic_stringIcNS_11char_traitsIcEENS_9allocatorIcEEEES6_EERKNS_13tuple_elementIXT_ENS_4pairIT0_T1_EEE4typeERKSB_, symObjAddr: 0xA18, symBinAddr: 0x100012914, symSize: 0x24 }
  - { offsetInCU: 0xF8ED, offset: 0x4CBBF, size: 0x8, addend: 0x0, symName: __ZNSt3__13getB8ue170006ILm1ENS_12basic_stringIcNS_11char_traitsIcEENS_9allocatorIcEEEES6_EERKNS_13tuple_elementIXT_ENS_4pairIT0_T1_EEE4typeERKSB_, symObjAddr: 0xA3C, symBinAddr: 0x100012938, symSize: 0x24 }
  - { offsetInCU: 0xF937, offset: 0x4CC09, size: 0x8, addend: 0x0, symName: '__ZNSt3__17find_ifB8ue170006INS_11__wrap_iterIPKPN6seneca11WorkstationEEEZNS2_11LineManagerC1ERKNS_12basic_stringIcNS_11char_traitsIcEENS_9allocatorIcEEEERKNS_6vectorIS4_NSC_IS4_EEEEE3$_0EET_SN_SN_T0_', symObjAddr: 0xA60, symBinAddr: 0x10001295C, symSize: 0x78 }
  - { offsetInCU: 0xF992, offset: 0x4CC64, size: 0x8, addend: 0x0, symName: '__ZNSt3__17find_ifB8ue170006INS_11__wrap_iterIPKPN6seneca11WorkstationEEEZNS2_11LineManagerC1ERKNS_12basic_stringIcNS_11char_traitsIcEENS_9allocatorIcEEEERKNS_6vectorIS4_NSC_IS4_EEEEE3$_1EET_SN_SN_T0_', symObjAddr: 0xB38, symBinAddr: 0x100012A34, symSize: 0x78 }
  - { offsetInCU: 0xF9ED, offset: 0x4CCBF, size: 0x8, addend: 0x0, symName: __ZNSt3__1neB8ue170006IPKPN6seneca11WorkstationEEEbRKNS_11__wrap_iterIT_EESA_, symObjAddr: 0xBB0, symBinAddr: 0x100012AAC, symSize: 0x34 }
  - { offsetInCU: 0xFA30, offset: 0x4CD02, size: 0x8, addend: 0x0, symName: '__ZNSt3__17find_ifB8ue170006INS_11__wrap_iterIPKPN6seneca11WorkstationEEEZNS2_11LineManagerC1ERKNS_12basic_stringIcNS_11char_traitsIcEENS_9allocatorIcEEEERKNS_6vectorIS4_NSC_IS4_EEEEE3$_2EET_SN_SN_T0_', symObjAddr: 0xC88, symBinAddr: 0x100012B84, symSize: 0x78 }
  - { offsetInCU: 0xFA96, offset: 0x4CD68, size: 0x8, addend: 0x0, symName: '__ZNSt3__18for_eachB8ue170006INS_11__wrap_iterIPPN6seneca11WorkstationEEEZNS2_11LineManager3runERNS_13basic_ostreamIcNS_11char_traitsIcEEEEE3$_3EET0_T_SF_SE_', symObjAddr: 0x1270, symBinAddr: 0x100012EB8, symSize: 0x6C }
  - { offsetInCU: 0xFAF1, offset: 0x4CDC3, size: 0x8, addend: 0x0, symName: '__ZNSt3__18for_eachB8ue170006INS_11__wrap_iterIPPN6seneca11WorkstationEEEZNS2_11LineManager3runERNS_13basic_ostreamIcNS_11char_traitsIcEEEEE3$_4EET0_T_SF_SE_', symObjAddr: 0x133C, symBinAddr: 0x100012F24, symSize: 0x5C }
  - { offsetInCU: 0xFB4C, offset: 0x4CE1E, size: 0x8, addend: 0x0, symName: '__ZNSt3__18for_eachB8ue170006INS_11__wrap_iterIPKPN6seneca11WorkstationEEEZNKS2_11LineManager7displayERNS_13basic_ostreamIcNS_11char_traitsIcEEEEE3$_5EET0_T_SG_SF_', symObjAddr: 0x13F4, symBinAddr: 0x100012FDC, symSize: 0x6C }
  - { offsetInCU: 0xFBA7, offset: 0x4CE79, size: 0x8, addend: 0x0, symName: __ZNSt3__1eqB8ue170006IPNS_4pairINS_12basic_stringIcNS_11char_traitsIcEENS_9allocatorIcEEEES7_EEEEbRKNS_11__wrap_iterIT_EESE_, symObjAddr: 0x147C, symBinAddr: 0x100013048, symSize: 0x48 }
  - { offsetInCU: 0xFC64, offset: 0x4CF36, size: 0x8, addend: 0x0, symName: __ZNSt3__1eqB8ue170006IPKPN6seneca11WorkstationEEEbRKNS_11__wrap_iterIT_EESA_, symObjAddr: 0x1508, symBinAddr: 0x1000130D4, symSize: 0x48 }
  - { offsetInCU: 0xFCA7, offset: 0x4CF79, size: 0x8, addend: 0x0, symName: __ZNSt3__112__to_addressB8ue170006INS_4pairINS_12basic_stringIcNS_11char_traitsIcEENS_9allocatorIcEEEES7_EEEEPT_SA_, symObjAddr: 0x27D4, symBinAddr: 0x100013664, symSize: 0x14 }
  - { offsetInCU: 0xFCDC, offset: 0x4CFAE, size: 0x8, addend: 0x0, symName: __ZNSt3__119__allocate_at_leastB8ue170006INS_9allocatorINS_4pairINS_12basic_stringIcNS_11char_traitsIcEENS1_IcEEEES7_EEEEEENS_19__allocation_resultINS_16allocator_traitsIT_E7pointerEEERSC_m, symObjAddr: 0x3DBC, symBinAddr: 0x1000140A0, symSize: 0x40 }
  - { offsetInCU: 0xFD1F, offset: 0x4CFF1, size: 0x8, addend: 0x0, symName: __ZNSt3__142__uninitialized_allocator_move_if_noexceptB8ue170006INS_9allocatorINS_4pairINS_12basic_stringIcNS_11char_traitsIcEENS1_IcEEEES7_EEEENS_16reverse_iteratorIPS8_EESC_SC_EET2_RT_T0_T1_SD_, symObjAddr: 0x4058, symBinAddr: 0x100014258, symSize: 0x12C }
  - { offsetInCU: 0xFDBF, offset: 0x4D091, size: 0x8, addend: 0x0, symName: __ZNSt3__14swapB8ue170006IPNS_4pairINS_12basic_stringIcNS_11char_traitsIcEENS_9allocatorIcEEEES7_EEEENS_9enable_ifIXaasr21is_move_constructibleIT_EE5valuesr18is_move_assignableISB_EE5valueEvE4typeERSB_SE_, symObjAddr: 0x41D0, symBinAddr: 0x1000143D0, symSize: 0x3C }
  - { offsetInCU: 0xFE10, offset: 0x4D0E2, size: 0x8, addend: 0x0, symName: __ZNSt3__122__make_exception_guardB8ue170006INS_29_AllocatorDestroyRangeReverseINS_9allocatorINS_4pairINS_12basic_stringIcNS_11char_traitsIcEENS2_IcEEEES8_EEEENS_16reverse_iteratorIPS9_EEEEEENS_28__exception_guard_exceptionsIT_EESG_, symObjAddr: 0x42D4, symBinAddr: 0x1000144D4, symSize: 0x4C }
  - { offsetInCU: 0xFE46, offset: 0x4D118, size: 0x8, addend: 0x0, symName: __ZNSt3__1neB8ue170006IPNS_4pairINS_12basic_stringIcNS_11char_traitsIcEENS_9allocatorIcEEEES7_EES9_EEbRKNS_16reverse_iteratorIT_EERKNSA_IT0_EE, symObjAddr: 0x4364, symBinAddr: 0x100014564, symSize: 0x48 }
  - { offsetInCU: 0xFE92, offset: 0x4D164, size: 0x8, addend: 0x0, symName: __ZNSt3__112__to_addressB8ue170006INS_16reverse_iteratorIPNS_4pairINS_12basic_stringIcNS_11char_traitsIcEENS_9allocatorIcEEEES8_EEEEvEEu7__decayIDTclsr19__to_address_helperIT_EE6__callclsr3stdE7declvalIRKSC_EEEEESE_, symObjAddr: 0x43E0, symBinAddr: 0x1000145E0, symSize: 0x24 }
  - { offsetInCU: 0xFEF1, offset: 0x4D1C3, size: 0x8, addend: 0x0, symName: __ZNSt3__119__allocator_destroyB8ue170006INS_9allocatorINS_4pairINS_12basic_stringIcNS_11char_traitsIcEENS1_IcEEEES7_EEEENS_16reverse_iteratorINSA_IPS8_EEEESD_EEvRT_T0_T1_, symObjAddr: 0x473C, symBinAddr: 0x10001493C, symSize: 0x70 }
  - { offsetInCU: 0xFF56, offset: 0x4D228, size: 0x8, addend: 0x0, symName: __ZNSt3__1neB8ue170006INS_16reverse_iteratorIPNS_4pairINS_12basic_stringIcNS_11char_traitsIcEENS_9allocatorIcEEEES8_EEEESB_EEbRKNS1_IT_EERKNS1_IT0_EE, symObjAddr: 0x47E8, symBinAddr: 0x1000149E8, symSize: 0x60 }
  - { offsetInCU: 0xFFA2, offset: 0x4D274, size: 0x8, addend: 0x0, symName: __ZNSt3__112__to_addressB8ue170006INS_16reverse_iteratorINS1_IPNS_4pairINS_12basic_stringIcNS_11char_traitsIcEENS_9allocatorIcEEEES8_EEEEEEvEEu7__decayIDTclsr19__to_address_helperIT_EE6__callclsr3stdE7declvalIRKSD_EEEEESF_, symObjAddr: 0x4848, symBinAddr: 0x100014A48, symSize: 0x24 }
  - { offsetInCU: 0x10001, offset: 0x4D2D3, size: 0x8, addend: 0x0, symName: '__ZNSt3__17none_ofB8ue170006INS_11__wrap_iterIPNS_4pairINS_12basic_stringIcNS_11char_traitsIcEENS_9allocatorIcEEEES8_EEEEZZN6seneca11LineManagerC1ERKS8_RKNS_6vectorIPNSC_11WorkstationENS6_ISI_EEEEENK3$_2clESI_EUlRKS9_E_EEbT_SR_T0_', symObjAddr: 0x6250, symBinAddr: 0x100015184, symSize: 0x98 }
  - { offsetInCU: 0x1005C, offset: 0x4D32E, size: 0x8, addend: 0x0, symName: __ZNSt3__18distanceB8ue170006IPPN6seneca11WorkstationEEENS_15iterator_traitsIT_E15difference_typeES6_S6_, symObjAddr: 0x6528, symBinAddr: 0x10001545C, symSize: 0x2C }
  - { offsetInCU: 0x1009F, offset: 0x4D371, size: 0x8, addend: 0x0, symName: __ZNSt3__14nextB8ue170006IPPN6seneca11WorkstationEEENS_9enable_ifIXsr29__has_input_iterator_categoryIT_EE5valueES6_E4typeES6_NS_15iterator_traitsIS6_E15difference_typeE, symObjAddr: 0x6554, symBinAddr: 0x100015488, symSize: 0x34 }
  - { offsetInCU: 0x100E2, offset: 0x4D3B4, size: 0x8, addend: 0x0, symName: __ZNSt3__14copyB8ue170006IPPN6seneca11WorkstationES4_EET0_T_S6_S5_, symObjAddr: 0x6588, symBinAddr: 0x1000154BC, symSize: 0x40 }
  - { offsetInCU: 0x1013C, offset: 0x4D40E, size: 0x8, addend: 0x0, symName: __ZNSt3__16__copyB8ue170006INS_17_ClassicAlgPolicyEPPN6seneca11WorkstationES5_S5_EENS_4pairIT0_T2_EES7_T1_S8_, symObjAddr: 0x6654, symBinAddr: 0x100015588, symSize: 0x44 }
  - { offsetInCU: 0x101A8, offset: 0x4D47A, size: 0x8, addend: 0x0, symName: __ZNSt3__121__convert_to_integralB8ue170006El, symObjAddr: 0x685C, symBinAddr: 0x100015790, symSize: 0x14 }
  - { offsetInCU: 0x101D4, offset: 0x4D4A6, size: 0x8, addend: 0x0, symName: __ZNSt3__19__advanceB8ue170006IPPN6seneca11WorkstationEEEvRT_NS_15iterator_traitsIS5_E15difference_typeENS_26random_access_iterator_tagE, symObjAddr: 0x6870, symBinAddr: 0x1000157A4, symSize: 0x28 }
  - { offsetInCU: 0x1021E, offset: 0x4D4F0, size: 0x8, addend: 0x0, symName: __ZNSt3__130__uninitialized_allocator_copyB8ue170006INS_9allocatorIPN6seneca11WorkstationEEEPS4_S6_S6_EET2_RT_T0_T1_S7_, symObjAddr: 0x6898, symBinAddr: 0x1000157CC, symSize: 0x80 }
  - { offsetInCU: 0x102BB, offset: 0x4D58D, size: 0x8, addend: 0x0, symName: __ZNSt3__114__unwrap_rangeB8ue170006IPPN6seneca11WorkstationES4_EENS_4pairIT0_S6_EET_S8_, symObjAddr: 0x6918, symBinAddr: 0x10001584C, symSize: 0x60 }
  - { offsetInCU: 0x10307, offset: 0x4D5D9, size: 0x8, addend: 0x0, symName: __ZNSt3__135__uninitialized_allocator_copy_implB8ue170006INS_9allocatorIPN6seneca11WorkstationEEES4_S4_S4_LPv0EEEPT2_RT_PT0_SC_S8_, symObjAddr: 0x6978, symBinAddr: 0x1000158AC, symSize: 0x38 }
  - { offsetInCU: 0x10388, offset: 0x4D65A, size: 0x8, addend: 0x0, symName: __ZNSt3__113__unwrap_iterB8ue170006IPPN6seneca11WorkstationENS_18__unwrap_iter_implIS4_Lb1EEELi0EEEDTclsrT0_8__unwrapclsr3stdE7declvalIT_EEEES8_, symObjAddr: 0x69B0, symBinAddr: 0x1000158E4, symSize: 0x24 }
  - { offsetInCU: 0x103CC, offset: 0x4D69E, size: 0x8, addend: 0x0, symName: __ZNSt3__113__rewrap_iterB8ue170006IPPN6seneca11WorkstationES4_NS_18__unwrap_iter_implIS4_Lb1EEEEET_S7_T0_, symObjAddr: 0x69D4, symBinAddr: 0x100015908, symSize: 0x3C }
  - { offsetInCU: 0x10421, offset: 0x4D6F3, size: 0x8, addend: 0x0, symName: __ZNSt3__19make_pairB8ue170006IPPN6seneca11WorkstationES4_EENS_4pairINS_18__unwrap_ref_decayIT_E4typeENS6_IT0_E4typeEEEOS7_OSA_, symObjAddr: 0x6A10, symBinAddr: 0x100015944, symSize: 0x38 }
  - { offsetInCU: 0x105C6, offset: 0x4D898, size: 0x8, addend: 0x0, symName: __ZNSt3__123__dispatch_copy_or_moveB8ue170006INS_17_ClassicAlgPolicyENS_11__copy_loopIS1_EENS_14__copy_trivialEPPN6seneca11WorkstationES8_S8_EENS_4pairIT2_T4_EESA_T3_SB_, symObjAddr: 0x6B2C, symBinAddr: 0x100015A60, symSize: 0x44 }
  - { offsetInCU: 0x10644, offset: 0x4D916, size: 0x8, addend: 0x0, symName: __ZNSt3__121__unwrap_and_dispatchB8ue170006INS_10__overloadINS_11__copy_loopINS_17_ClassicAlgPolicyEEENS_14__copy_trivialEEEPPN6seneca11WorkstationESA_SA_Li0EEENS_4pairIT0_T2_EESC_T1_SD_, symObjAddr: 0x6B70, symBinAddr: 0x100015AA4, symSize: 0xB4 }
  - { offsetInCU: 0x10718, offset: 0x4D9EA, size: 0x8, addend: 0x0, symName: __ZNSt3__114__rewrap_rangeB8ue170006IPPN6seneca11WorkstationES4_EET_S5_T0_, symObjAddr: 0x6C6C, symBinAddr: 0x100015BA0, symSize: 0x2C }
  - { offsetInCU: 0x10764, offset: 0x4DA36, size: 0x8, addend: 0x0, symName: __ZNSt3__119__copy_trivial_implB8ue170006IPN6seneca11WorkstationES3_EENS_4pairIPT_PT0_EES6_S6_S8_, symObjAddr: 0x6C98, symBinAddr: 0x100015BCC, symSize: 0x80 }
  - { offsetInCU: 0x107CC, offset: 0x4DA9E, size: 0x8, addend: 0x0, symName: __ZNSt3__119__constexpr_memmoveB8ue170006IPN6seneca11WorkstationES3_Li0EEEPT_S5_PT0_NS_15__element_countE, symObjAddr: 0x6D18, symBinAddr: 0x100015C4C, symSize: 0x64 }
  - { offsetInCU: 0x1083A, offset: 0x4DB0C, size: 0x8, addend: 0x0, symName: __ZNSt3__19make_pairB8ue170006IRPPN6seneca11WorkstationES4_EENS_4pairINS_18__unwrap_ref_decayIT_E4typeENS7_IT0_E4typeEEEOS8_OSB_, symObjAddr: 0x6D7C, symBinAddr: 0x100015CB0, symSize: 0x38 }
  - { offsetInCU: 0x10889, offset: 0x4DB5B, size: 0x8, addend: 0x0, symName: __ZNSt3__110__distanceB8ue170006IPPN6seneca11WorkstationEEENS_15iterator_traitsIT_E15difference_typeES6_S6_NS_26random_access_iterator_tagE, symObjAddr: 0x6F1C, symBinAddr: 0x100015E50, symSize: 0x28 }
  - { offsetInCU: 0x10F90, offset: 0x4E262, size: 0x8, addend: 0x0, symName: __ZN6seneca11LineManager3runERNSt3__113basic_ostreamIcNS1_11char_traitsIcEEEE, symObjAddr: 0xF18, symBinAddr: 0x100012D80, symSize: 0x138 }
  - { offsetInCU: 0x10FB6, offset: 0x4E288, size: 0x8, addend: 0x0, symName: __ZZN6seneca11LineManager3runERNSt3__113basic_ostreamIcNS1_11char_traitsIcEEEEE14iterationCount, symObjAddr: 0x72628, symBinAddr: 0x10001C0B8, symSize: 0x0 }
  - { offsetInCU: 0x11445, offset: 0x4E717, size: 0x8, addend: 0x0, symName: __ZNSt3__16vectorINS_4pairINS_12basic_stringIcNS_11char_traitsIcEENS_9allocatorIcEEEES7_EENS5_IS8_EEE26__swap_out_circular_bufferERNS_14__split_bufferIS8_RS9_EE, symObjAddr: 0x3818, symBinAddr: 0x100013D30, symSize: 0x110 }
  - { offsetInCU: 0x13332, offset: 0x50604, size: 0x8, addend: 0x0, symName: __ZN6seneca11LineManagerC2ERKNSt3__112basic_stringIcNS1_11char_traitsIcEENS1_9allocatorIcEEEERKNS1_6vectorIPNS_11WorkstationENS5_ISC_EEEE, symObjAddr: 0x0, symBinAddr: 0x100012078, symSize: 0x5AC }
  - { offsetInCU: 0x1357D, offset: 0x5084F, size: 0x8, addend: 0x0, symName: __ZNSt3__114basic_ifstreamIcNS_11char_traitsIcEEEC1ERKNS_12basic_stringIcS2_NS_9allocatorIcEEEEj, symObjAddr: 0x5D8, symBinAddr: 0x100012624, symSize: 0x16C }
  - { offsetInCU: 0x135C7, offset: 0x50899, size: 0x8, addend: 0x0, symName: __ZNSt3__16vectorINS_4pairINS_12basic_stringIcNS_11char_traitsIcEENS_9allocatorIcEEEES7_EENS5_IS8_EEEC1B8ue170006Ev, symObjAddr: 0x7D8, symBinAddr: 0x100012790, symSize: 0x2C }
  - { offsetInCU: 0x135F1, offset: 0x508C3, size: 0x8, addend: 0x0, symName: __ZNKSt3__19basic_iosIcNS_11char_traitsIcEEEcvbB8ue170006Ev, symObjAddr: 0x860, symBinAddr: 0x1000127BC, symSize: 0x2C }
  - { offsetInCU: 0x13621, offset: 0x508F3, size: 0x8, addend: 0x0, symName: __ZNSt3__16vectorINS_4pairINS_12basic_stringIcNS_11char_traitsIcEENS_9allocatorIcEEEES7_EENS5_IS8_EEE12emplace_backIJRS7_SC_EEERS8_DpOT_, symObjAddr: 0x8EC, symBinAddr: 0x1000127E8, symSize: 0x80 }
  - { offsetInCU: 0x13677, offset: 0x50949, size: 0x8, addend: 0x0, symName: __ZNSt3__16vectorINS_4pairINS_12basic_stringIcNS_11char_traitsIcEENS_9allocatorIcEEEES7_EENS5_IS8_EEE5beginB8ue170006Ev, symObjAddr: 0x96C, symBinAddr: 0x100012868, symSize: 0x30 }
  - { offsetInCU: 0x1369F, offset: 0x50971, size: 0x8, addend: 0x0, symName: __ZNSt3__16vectorINS_4pairINS_12basic_stringIcNS_11char_traitsIcEENS_9allocatorIcEEEES7_EENS5_IS8_EEE3endB8ue170006Ev, symObjAddr: 0x99C, symBinAddr: 0x100012898, symSize: 0x30 }
  - { offsetInCU: 0x136C7, offset: 0x50999, size: 0x8, addend: 0x0, symName: __ZNKSt3__111__wrap_iterIPNS_4pairINS_12basic_stringIcNS_11char_traitsIcEENS_9allocatorIcEEEES7_EEEdeB8ue170006Ev, symObjAddr: 0xA00, symBinAddr: 0x1000128FC, symSize: 0x18 }
  - { offsetInCU: 0x136ED, offset: 0x509BF, size: 0x8, addend: 0x0, symName: __ZNKSt3__16vectorIPN6seneca11WorkstationENS_9allocatorIS3_EEE5beginB8ue170006Ev, symObjAddr: 0xAD8, symBinAddr: 0x1000129D4, symSize: 0x30 }
  - { offsetInCU: 0x13715, offset: 0x509E7, size: 0x8, addend: 0x0, symName: __ZNKSt3__16vectorIPN6seneca11WorkstationENS_9allocatorIS3_EEE3endB8ue170006Ev, symObjAddr: 0xB08, symBinAddr: 0x100012A04, symSize: 0x30 }
  - { offsetInCU: 0x1373D, offset: 0x50A0F, size: 0x8, addend: 0x0, symName: __ZNKSt3__111__wrap_iterIPKPN6seneca11WorkstationEEdeB8ue170006Ev, symObjAddr: 0xBE4, symBinAddr: 0x100012AE0, symSize: 0x18 }
  - { offsetInCU: 0x13763, offset: 0x50A35, size: 0x8, addend: 0x0, symName: __ZNSt3__16vectorIPN6seneca11WorkstationENS_9allocatorIS3_EEE9push_backB8ue170006ERKS3_, symObjAddr: 0xBFC, symBinAddr: 0x100012AF8, symSize: 0x6C }
  - { offsetInCU: 0x1379A, offset: 0x50A6C, size: 0x8, addend: 0x0, symName: __ZNSt3__111__wrap_iterIPNS_4pairINS_12basic_stringIcNS_11char_traitsIcEENS_9allocatorIcEEEES7_EEEppB8ue170006Ev, symObjAddr: 0xC68, symBinAddr: 0x100012B64, symSize: 0x20 }
  - { offsetInCU: 0x137C0, offset: 0x50A92, size: 0x8, addend: 0x0, symName: __ZNSt3__16vectorIPN6seneca11WorkstationENS_9allocatorIS3_EEEaSB8ue170006ERKS6_, symObjAddr: 0xD00, symBinAddr: 0x100012BFC, symSize: 0x68 }
  - { offsetInCU: 0x137F7, offset: 0x50AC9, size: 0x8, addend: 0x0, symName: __ZNSt3__16vectorINS_4pairINS_12basic_stringIcNS_11char_traitsIcEENS_9allocatorIcEEEES7_EENS5_IS8_EEED1B8ue170006Ev, symObjAddr: 0xDBC, symBinAddr: 0x100012C64, symSize: 0x2C }
  - { offsetInCU: 0x13826, offset: 0x50AF8, size: 0x8, addend: 0x0, symName: __ZN6seneca11LineManagerC1ERKNSt3__112basic_stringIcNS1_11char_traitsIcEENS1_9allocatorIcEEEERKNS1_6vectorIPNS_11WorkstationENS5_ISC_EEEE, symObjAddr: 0xE28, symBinAddr: 0x100012C90, symSize: 0x3C }
  - { offsetInCU: 0x138EF, offset: 0x50BC1, size: 0x8, addend: 0x0, symName: __ZN6seneca11LineManager15reorderStationsEv, symObjAddr: 0xE64, symBinAddr: 0x100012CCC, symSize: 0xB4 }
  - { offsetInCU: 0x13933, offset: 0x50C05, size: 0x8, addend: 0x0, symName: __ZNK6seneca11LineManager7displayERNSt3__113basic_ostreamIcNS1_11char_traitsIcEEEE, symObjAddr: 0x1398, symBinAddr: 0x100012F80, symSize: 0x5C }
  - { offsetInCU: 0x13990, offset: 0x50C62, size: 0x8, addend: 0x0, symName: __ZNKSt3__111__wrap_iterIPNS_4pairINS_12basic_stringIcNS_11char_traitsIcEENS_9allocatorIcEEEES7_EEE4baseB8ue170006Ev, symObjAddr: 0x14C4, symBinAddr: 0x100013090, symSize: 0x18 }
  - { offsetInCU: 0x139B6, offset: 0x50C88, size: 0x8, addend: 0x0, symName: __ZNSt3__110__get_pairILm0EE3getB8ue170006INS_12basic_stringIcNS_11char_traitsIcEENS_9allocatorIcEEEES8_EERKT_RKNS_4pairIS9_T0_EE, symObjAddr: 0x14DC, symBinAddr: 0x1000130A8, symSize: 0x14 }
  - { offsetInCU: 0x139EC, offset: 0x50CBE, size: 0x8, addend: 0x0, symName: __ZNSt3__110__get_pairILm1EE3getB8ue170006INS_12basic_stringIcNS_11char_traitsIcEENS_9allocatorIcEEEES8_EERKT0_RKNS_4pairIT_S9_EE, symObjAddr: 0x14F0, symBinAddr: 0x1000130BC, symSize: 0x18 }
  - { offsetInCU: 0x13A22, offset: 0x50CF4, size: 0x8, addend: 0x0, symName: __ZNKSt3__111__wrap_iterIPKPN6seneca11WorkstationEE4baseB8ue170006Ev, symObjAddr: 0x1550, symBinAddr: 0x10001311C, symSize: 0x18 }
  - { offsetInCU: 0x13A54, offset: 0x50D26, size: 0x8, addend: 0x0, symName: __ZNSt3__113basic_filebufIcNS_11char_traitsIcEEE4openERKNS_12basic_stringIcS2_NS_9allocatorIcEEEEj, symObjAddr: 0x1FA4, symBinAddr: 0x100013134, symSize: 0x44 }
  - { offsetInCU: 0x13A98, offset: 0x50D6A, size: 0x8, addend: 0x0, symName: __ZNKSt3__112basic_stringIcNS_11char_traitsIcEENS_9allocatorIcEEE5c_strB8ue170006Ev, symObjAddr: 0x2084, symBinAddr: 0x100013178, symSize: 0x24 }
  - { offsetInCU: 0x13ABE, offset: 0x50D90, size: 0x8, addend: 0x0, symName: __ZNSt3__16vectorINS_4pairINS_12basic_stringIcNS_11char_traitsIcEENS_9allocatorIcEEEES7_EENS5_IS8_EEEC2B8ue170006Ev, symObjAddr: 0x230C, symBinAddr: 0x10001319C, symSize: 0x4C }
  - { offsetInCU: 0x13AE8, offset: 0x50DBA, size: 0x8, addend: 0x0, symName: __ZNSt3__117__compressed_pairIPNS_4pairINS_12basic_stringIcNS_11char_traitsIcEENS_9allocatorIcEEEES7_EENS5_IS8_EEEC1B8ue170006IDnNS_18__default_init_tagEEEOT_OT0_, symObjAddr: 0x2358, symBinAddr: 0x1000131E8, symSize: 0x3C }
  - { offsetInCU: 0x13B40, offset: 0x50E12, size: 0x8, addend: 0x0, symName: __ZNSt3__117__compressed_pairIPNS_4pairINS_12basic_stringIcNS_11char_traitsIcEENS_9allocatorIcEEEES7_EENS5_IS8_EEEC2B8ue170006IDnNS_18__default_init_tagEEEOT_OT0_, symObjAddr: 0x2394, symBinAddr: 0x100013224, symSize: 0x40 }
  - { offsetInCU: 0x13B98, offset: 0x50E6A, size: 0x8, addend: 0x0, symName: __ZNSt3__122__compressed_pair_elemIPNS_4pairINS_12basic_stringIcNS_11char_traitsIcEENS_9allocatorIcEEEES7_EELi0ELb0EEC2B8ue170006IDnvEEOT_, symObjAddr: 0x23D4, symBinAddr: 0x100013264, symSize: 0x1C }
  - { offsetInCU: 0x13BDA, offset: 0x50EAC, size: 0x8, addend: 0x0, symName: __ZNSt3__122__compressed_pair_elemINS_9allocatorINS_4pairINS_12basic_stringIcNS_11char_traitsIcEENS1_IcEEEES7_EEEELi1ELb1EEC2B8ue170006ENS_18__default_init_tagE, symObjAddr: 0x23F0, symBinAddr: 0x100013280, symSize: 0x2C }
  - { offsetInCU: 0x13C0E, offset: 0x50EE0, size: 0x8, addend: 0x0, symName: __ZNSt3__19allocatorINS_4pairINS_12basic_stringIcNS_11char_traitsIcEENS0_IcEEEES6_EEEC2B8ue170006Ev, symObjAddr: 0x241C, symBinAddr: 0x1000132AC, symSize: 0x2C }
  - { offsetInCU: 0x13C38, offset: 0x50F0A, size: 0x8, addend: 0x0, symName: __ZNSt3__116__non_trivial_ifILb1ENS_9allocatorINS_4pairINS_12basic_stringIcNS_11char_traitsIcEENS1_IcEEEES7_EEEEEC2B8ue170006Ev, symObjAddr: 0x2448, symBinAddr: 0x1000132D8, symSize: 0x14 }
  - { offsetInCU: 0x13C62, offset: 0x50F34, size: 0x8, addend: 0x0, symName: __ZNSt3__16vectorINS_4pairINS_12basic_stringIcNS_11char_traitsIcEENS_9allocatorIcEEEES7_EENS5_IS8_EEED2B8ue170006Ev, symObjAddr: 0x245C, symBinAddr: 0x1000132EC, symSize: 0x44 }
  - { offsetInCU: 0x13C8C, offset: 0x50F5E, size: 0x8, addend: 0x0, symName: __ZNSt3__16vectorINS_4pairINS_12basic_stringIcNS_11char_traitsIcEENS_9allocatorIcEEEES7_EENS5_IS8_EEE16__destroy_vectorC1B8ue170006ERSA_, symObjAddr: 0x24A0, symBinAddr: 0x100013330, symSize: 0x34 }
  - { offsetInCU: 0x13CC5, offset: 0x50F97, size: 0x8, addend: 0x0, symName: __ZNSt3__16vectorINS_4pairINS_12basic_stringIcNS_11char_traitsIcEENS_9allocatorIcEEEES7_EENS5_IS8_EEE16__destroy_vectorclB8ue170006Ev, symObjAddr: 0x24D4, symBinAddr: 0x100013364, symSize: 0x90 }
  - { offsetInCU: 0x13CEB, offset: 0x50FBD, size: 0x8, addend: 0x0, symName: __ZNSt3__16vectorINS_4pairINS_12basic_stringIcNS_11char_traitsIcEENS_9allocatorIcEEEES7_EENS5_IS8_EEE16__destroy_vectorC2B8ue170006ERSA_, symObjAddr: 0x2564, symBinAddr: 0x1000133F4, symSize: 0x20 }
  - { offsetInCU: 0x13D24, offset: 0x50FF6, size: 0x8, addend: 0x0, symName: __ZNSt3__16vectorINS_4pairINS_12basic_stringIcNS_11char_traitsIcEENS_9allocatorIcEEEES7_EENS5_IS8_EEE7__clearB8ue170006Ev, symObjAddr: 0x2584, symBinAddr: 0x100013414, symSize: 0x28 }
  - { offsetInCU: 0x13D4A, offset: 0x5101C, size: 0x8, addend: 0x0, symName: __ZNKSt3__16vectorINS_4pairINS_12basic_stringIcNS_11char_traitsIcEENS_9allocatorIcEEEES7_EENS5_IS8_EEE17__annotate_deleteB8ue170006Ev, symObjAddr: 0x25AC, symBinAddr: 0x10001343C, symSize: 0xD4 }
  - { offsetInCU: 0x13D70, offset: 0x51042, size: 0x8, addend: 0x0, symName: __ZNSt3__116allocator_traitsINS_9allocatorINS_4pairINS_12basic_stringIcNS_11char_traitsIcEENS1_IcEEEES7_EEEEE10deallocateB8ue170006ERS9_PS8_m, symObjAddr: 0x2680, symBinAddr: 0x100013510, symSize: 0x34 }
  - { offsetInCU: 0x13DB2, offset: 0x51084, size: 0x8, addend: 0x0, symName: __ZNSt3__16vectorINS_4pairINS_12basic_stringIcNS_11char_traitsIcEENS_9allocatorIcEEEES7_EENS5_IS8_EEE7__allocB8ue170006Ev, symObjAddr: 0x26B4, symBinAddr: 0x100013544, symSize: 0x28 }
  - { offsetInCU: 0x13DD8, offset: 0x510AA, size: 0x8, addend: 0x0, symName: __ZNKSt3__16vectorINS_4pairINS_12basic_stringIcNS_11char_traitsIcEENS_9allocatorIcEEEES7_EENS5_IS8_EEE8capacityB8ue170006Ev, symObjAddr: 0x26DC, symBinAddr: 0x10001356C, symSize: 0x40 }
  - { offsetInCU: 0x13DFE, offset: 0x510D0, size: 0x8, addend: 0x0, symName: __ZNSt3__16vectorINS_4pairINS_12basic_stringIcNS_11char_traitsIcEENS_9allocatorIcEEEES7_EENS5_IS8_EEE22__base_destruct_at_endB8ue170006EPS8_, symObjAddr: 0x271C, symBinAddr: 0x1000135AC, symSize: 0x8C }
  - { offsetInCU: 0x13E42, offset: 0x51114, size: 0x8, addend: 0x0, symName: __ZNSt3__116allocator_traitsINS_9allocatorINS_4pairINS_12basic_stringIcNS_11char_traitsIcEENS1_IcEEEES7_EEEEE7destroyB8ue170006IS8_vEEvRS9_PT_, symObjAddr: 0x27A8, symBinAddr: 0x100013638, symSize: 0x2C }
  - { offsetInCU: 0x13E7F, offset: 0x51151, size: 0x8, addend: 0x0, symName: __ZNSt3__19allocatorINS_4pairINS_12basic_stringIcNS_11char_traitsIcEENS0_IcEEEES6_EEE7destroyB8ue170006EPS7_, symObjAddr: 0x27E8, symBinAddr: 0x100013678, symSize: 0x28 }
  - { offsetInCU: 0x13EB3, offset: 0x51185, size: 0x8, addend: 0x0, symName: __ZNSt3__14pairINS_12basic_stringIcNS_11char_traitsIcEENS_9allocatorIcEEEES6_ED1Ev, symObjAddr: 0x2810, symBinAddr: 0x1000136A0, symSize: 0x2C }
  - { offsetInCU: 0x13EDF, offset: 0x511B1, size: 0x8, addend: 0x0, symName: __ZNSt3__14pairINS_12basic_stringIcNS_11char_traitsIcEENS_9allocatorIcEEEES6_ED2Ev, symObjAddr: 0x283C, symBinAddr: 0x1000136CC, symSize: 0x38 }
  - { offsetInCU: 0x13F0B, offset: 0x511DD, size: 0x8, addend: 0x0, symName: __ZNKSt3__16vectorINS_4pairINS_12basic_stringIcNS_11char_traitsIcEENS_9allocatorIcEEEES7_EENS5_IS8_EEE31__annotate_contiguous_containerB8ue170006EPKvSC_SC_SC_, symObjAddr: 0x2874, symBinAddr: 0x100013704, symSize: 0x20 }
  - { offsetInCU: 0x13F5D, offset: 0x5122F, size: 0x8, addend: 0x0, symName: __ZNKSt3__16vectorINS_4pairINS_12basic_stringIcNS_11char_traitsIcEENS_9allocatorIcEEEES7_EENS5_IS8_EEE4dataB8ue170006Ev, symObjAddr: 0x2894, symBinAddr: 0x100013724, symSize: 0x28 }
  - { offsetInCU: 0x13F83, offset: 0x51255, size: 0x8, addend: 0x0, symName: __ZNKSt3__16vectorINS_4pairINS_12basic_stringIcNS_11char_traitsIcEENS_9allocatorIcEEEES7_EENS5_IS8_EEE4sizeB8ue170006Ev, symObjAddr: 0x28BC, symBinAddr: 0x10001374C, symSize: 0x28 }
  - { offsetInCU: 0x13FA9, offset: 0x5127B, size: 0x8, addend: 0x0, symName: __ZNSt3__19allocatorINS_4pairINS_12basic_stringIcNS_11char_traitsIcEENS0_IcEEEES6_EEE10deallocateB8ue170006EPS7_m, symObjAddr: 0x28E4, symBinAddr: 0x100013774, symSize: 0x44 }
  - { offsetInCU: 0x13FEB, offset: 0x512BD, size: 0x8, addend: 0x0, symName: __ZNSt3__117__compressed_pairIPNS_4pairINS_12basic_stringIcNS_11char_traitsIcEENS_9allocatorIcEEEES7_EENS5_IS8_EEE6secondB8ue170006Ev, symObjAddr: 0x2928, symBinAddr: 0x1000137B8, symSize: 0x24 }
  - { offsetInCU: 0x14011, offset: 0x512E3, size: 0x8, addend: 0x0, symName: __ZNSt3__122__compressed_pair_elemINS_9allocatorINS_4pairINS_12basic_stringIcNS_11char_traitsIcEENS1_IcEEEES7_EEEELi1ELb1EE5__getB8ue170006Ev, symObjAddr: 0x294C, symBinAddr: 0x1000137DC, symSize: 0x14 }
  - { offsetInCU: 0x14037, offset: 0x51309, size: 0x8, addend: 0x0, symName: __ZNKSt3__16vectorINS_4pairINS_12basic_stringIcNS_11char_traitsIcEENS_9allocatorIcEEEES7_EENS5_IS8_EEE9__end_capB8ue170006Ev, symObjAddr: 0x2960, symBinAddr: 0x1000137F0, symSize: 0x28 }
  - { offsetInCU: 0x1405D, offset: 0x5132F, size: 0x8, addend: 0x0, symName: __ZNKSt3__117__compressed_pairIPNS_4pairINS_12basic_stringIcNS_11char_traitsIcEENS_9allocatorIcEEEES7_EENS5_IS8_EEE5firstB8ue170006Ev, symObjAddr: 0x2988, symBinAddr: 0x100013818, symSize: 0x24 }
  - { offsetInCU: 0x14083, offset: 0x51355, size: 0x8, addend: 0x0, symName: __ZNKSt3__122__compressed_pair_elemIPNS_4pairINS_12basic_stringIcNS_11char_traitsIcEENS_9allocatorIcEEEES7_EELi0ELb0EE5__getB8ue170006Ev, symObjAddr: 0x29AC, symBinAddr: 0x10001383C, symSize: 0x14 }
  - { offsetInCU: 0x140C7, offset: 0x51399, size: 0x8, addend: 0x0, symName: __ZNSt3__16vectorINS_4pairINS_12basic_stringIcNS_11char_traitsIcEENS_9allocatorIcEEEES7_EENS5_IS8_EEE9__end_capB8ue170006Ev, symObjAddr: 0x3338, symBinAddr: 0x100013850, symSize: 0x28 }
  - { offsetInCU: 0x140ED, offset: 0x513BF, size: 0x8, addend: 0x0, symName: __ZNSt3__16vectorINS_4pairINS_12basic_stringIcNS_11char_traitsIcEENS_9allocatorIcEEEES7_EENS5_IS8_EEE22__construct_one_at_endB8ue170006IJRS7_SC_EEEvDpOT_, symObjAddr: 0x3360, symBinAddr: 0x100013878, symSize: 0x98 }
  - { offsetInCU: 0x14150, offset: 0x51422, size: 0x8, addend: 0x0, symName: __ZNSt3__16vectorINS_4pairINS_12basic_stringIcNS_11char_traitsIcEENS_9allocatorIcEEEES7_EENS5_IS8_EEE24__emplace_back_slow_pathIJRS7_SC_EEEvDpOT_, symObjAddr: 0x33F8, symBinAddr: 0x100013910, symSize: 0xE0 }
  - { offsetInCU: 0x141C4, offset: 0x51496, size: 0x8, addend: 0x0, symName: __ZNSt3__16vectorINS_4pairINS_12basic_stringIcNS_11char_traitsIcEENS_9allocatorIcEEEES7_EENS5_IS8_EEE4backB8ue170006Ev, symObjAddr: 0x34D8, symBinAddr: 0x1000139F0, symSize: 0x1C }
  - { offsetInCU: 0x141EA, offset: 0x514BC, size: 0x8, addend: 0x0, symName: __ZNSt3__117__compressed_pairIPNS_4pairINS_12basic_stringIcNS_11char_traitsIcEENS_9allocatorIcEEEES7_EENS5_IS8_EEE5firstB8ue170006Ev, symObjAddr: 0x34F4, symBinAddr: 0x100013A0C, symSize: 0x24 }
  - { offsetInCU: 0x14210, offset: 0x514E2, size: 0x8, addend: 0x0, symName: __ZNSt3__122__compressed_pair_elemIPNS_4pairINS_12basic_stringIcNS_11char_traitsIcEENS_9allocatorIcEEEES7_EELi0ELb0EE5__getB8ue170006Ev, symObjAddr: 0x3518, symBinAddr: 0x100013A30, symSize: 0x14 }
  - { offsetInCU: 0x1424F, offset: 0x51521, size: 0x8, addend: 0x0, symName: __ZNSt3__16vectorINS_4pairINS_12basic_stringIcNS_11char_traitsIcEENS_9allocatorIcEEEES7_EENS5_IS8_EEE21_ConstructTransactionC1B8ue170006ERSA_m, symObjAddr: 0x352C, symBinAddr: 0x100013A44, symSize: 0x3C }
  - { offsetInCU: 0x14297, offset: 0x51569, size: 0x8, addend: 0x0, symName: __ZNSt3__116allocator_traitsINS_9allocatorINS_4pairINS_12basic_stringIcNS_11char_traitsIcEENS1_IcEEEES7_EEEEE9constructB8ue170006IS8_JRS7_SC_EvEEvRS9_PT_DpOT0_, symObjAddr: 0x3568, symBinAddr: 0x100013A80, symSize: 0x3C }
  - { offsetInCU: 0x14302, offset: 0x515D4, size: 0x8, addend: 0x0, symName: __ZNSt3__16vectorINS_4pairINS_12basic_stringIcNS_11char_traitsIcEENS_9allocatorIcEEEES7_EENS5_IS8_EEE21_ConstructTransactionD1B8ue170006Ev, symObjAddr: 0x35A4, symBinAddr: 0x100013ABC, symSize: 0x2C }
  - { offsetInCU: 0x1432C, offset: 0x515FE, size: 0x8, addend: 0x0, symName: __ZNSt3__16vectorINS_4pairINS_12basic_stringIcNS_11char_traitsIcEENS_9allocatorIcEEEES7_EENS5_IS8_EEE21_ConstructTransactionC2B8ue170006ERSA_m, symObjAddr: 0x35D0, symBinAddr: 0x100013AE8, symSize: 0x4C }
  - { offsetInCU: 0x14374, offset: 0x51646, size: 0x8, addend: 0x0, symName: __ZNSt3__19allocatorINS_4pairINS_12basic_stringIcNS_11char_traitsIcEENS0_IcEEEES6_EEE9constructB8ue170006IS7_JRS6_SA_EEEvPT_DpOT0_, symObjAddr: 0x361C, symBinAddr: 0x100013B34, symSize: 0x38 }
  - { offsetInCU: 0x143DD, offset: 0x516AF, size: 0x8, addend: 0x0, symName: __ZNSt3__14pairINS_12basic_stringIcNS_11char_traitsIcEENS_9allocatorIcEEEES6_EC1B8ue170006IRS6_S9_LPv0EEEOT_OT0_, symObjAddr: 0x3654, symBinAddr: 0x100013B6C, symSize: 0x3C }
  - { offsetInCU: 0x1443B, offset: 0x5170D, size: 0x8, addend: 0x0, symName: __ZNSt3__14pairINS_12basic_stringIcNS_11char_traitsIcEENS_9allocatorIcEEEES6_EC2B8ue170006IRS6_S9_LPv0EEEOT_OT0_, symObjAddr: 0x3690, symBinAddr: 0x100013BA8, symSize: 0x70 }
  - { offsetInCU: 0x14499, offset: 0x5176B, size: 0x8, addend: 0x0, symName: __ZNSt3__16vectorINS_4pairINS_12basic_stringIcNS_11char_traitsIcEENS_9allocatorIcEEEES7_EENS5_IS8_EEE21_ConstructTransactionD2B8ue170006Ev, symObjAddr: 0x3700, symBinAddr: 0x100013C18, symSize: 0x20 }
  - { offsetInCU: 0x144C3, offset: 0x51795, size: 0x8, addend: 0x0, symName: __ZNKSt3__16vectorINS_4pairINS_12basic_stringIcNS_11char_traitsIcEENS_9allocatorIcEEEES7_EENS5_IS8_EEE11__recommendB8ue170006Em, symObjAddr: 0x3720, symBinAddr: 0x100013C38, symSize: 0xB4 }
  - { offsetInCU: 0x14518, offset: 0x517EA, size: 0x8, addend: 0x0, symName: __ZNSt3__114__split_bufferINS_4pairINS_12basic_stringIcNS_11char_traitsIcEENS_9allocatorIcEEEES7_EERNS5_IS8_EEEC1EmmSA_, symObjAddr: 0x37D4, symBinAddr: 0x100013CEC, symSize: 0x44 }
  - { offsetInCU: 0x1456E, offset: 0x51840, size: 0x8, addend: 0x0, symName: __ZNSt3__114__split_bufferINS_4pairINS_12basic_stringIcNS_11char_traitsIcEENS_9allocatorIcEEEES7_EERNS5_IS8_EEED1Ev, symObjAddr: 0x3928, symBinAddr: 0x100013E40, symSize: 0x2C }
  - { offsetInCU: 0x1459A, offset: 0x5186C, size: 0x8, addend: 0x0, symName: __ZNKSt3__16vectorINS_4pairINS_12basic_stringIcNS_11char_traitsIcEENS_9allocatorIcEEEES7_EENS5_IS8_EEE8max_sizeEv, symObjAddr: 0x3954, symBinAddr: 0x100013E6C, symSize: 0x60 }
  - { offsetInCU: 0x145C2, offset: 0x51894, size: 0x8, addend: 0x0, symName: __ZNKSt3__16vectorINS_4pairINS_12basic_stringIcNS_11char_traitsIcEENS_9allocatorIcEEEES7_EENS5_IS8_EEE20__throw_length_errorB8ue170006Ev, symObjAddr: 0x39B4, symBinAddr: 0x100013ECC, symSize: 0x1C }
  - { offsetInCU: 0x145F2, offset: 0x518C4, size: 0x8, addend: 0x0, symName: __ZNSt3__116allocator_traitsINS_9allocatorINS_4pairINS_12basic_stringIcNS_11char_traitsIcEENS1_IcEEEES7_EEEEE8max_sizeB8ue170006IS9_vEEmRKS9_, symObjAddr: 0x3A28, symBinAddr: 0x100013EE8, symSize: 0x24 }
  - { offsetInCU: 0x14620, offset: 0x518F2, size: 0x8, addend: 0x0, symName: __ZNKSt3__16vectorINS_4pairINS_12basic_stringIcNS_11char_traitsIcEENS_9allocatorIcEEEES7_EENS5_IS8_EEE7__allocB8ue170006Ev, symObjAddr: 0x3A4C, symBinAddr: 0x100013F0C, symSize: 0x28 }
  - { offsetInCU: 0x14646, offset: 0x51918, size: 0x8, addend: 0x0, symName: __ZNKSt3__19allocatorINS_4pairINS_12basic_stringIcNS_11char_traitsIcEENS0_IcEEEES6_EEE8max_sizeB8ue170006Ev, symObjAddr: 0x3B10, symBinAddr: 0x100013F34, symSize: 0x18 }
  - { offsetInCU: 0x1466C, offset: 0x5193E, size: 0x8, addend: 0x0, symName: __ZNKSt3__117__compressed_pairIPNS_4pairINS_12basic_stringIcNS_11char_traitsIcEENS_9allocatorIcEEEES7_EENS5_IS8_EEE6secondB8ue170006Ev, symObjAddr: 0x3B28, symBinAddr: 0x100013F4C, symSize: 0x24 }
  - { offsetInCU: 0x14692, offset: 0x51964, size: 0x8, addend: 0x0, symName: __ZNKSt3__122__compressed_pair_elemINS_9allocatorINS_4pairINS_12basic_stringIcNS_11char_traitsIcEENS1_IcEEEES7_EEEELi1ELb1EE5__getB8ue170006Ev, symObjAddr: 0x3B4C, symBinAddr: 0x100013F70, symSize: 0x14 }
  - { offsetInCU: 0x146B8, offset: 0x5198A, size: 0x8, addend: 0x0, symName: __ZNSt3__114__split_bufferINS_4pairINS_12basic_stringIcNS_11char_traitsIcEENS_9allocatorIcEEEES7_EERNS5_IS8_EEEC2EmmSA_, symObjAddr: 0x3CA0, symBinAddr: 0x100013F84, symSize: 0xE0 }
  - { offsetInCU: 0x1472B, offset: 0x519FD, size: 0x8, addend: 0x0, symName: __ZNSt3__117__compressed_pairIPNS_4pairINS_12basic_stringIcNS_11char_traitsIcEENS_9allocatorIcEEEES7_EERNS5_IS8_EEEC1B8ue170006IDnSB_EEOT_OT0_, symObjAddr: 0x3D80, symBinAddr: 0x100014064, symSize: 0x3C }
  - { offsetInCU: 0x14783, offset: 0x51A55, size: 0x8, addend: 0x0, symName: __ZNSt3__114__split_bufferINS_4pairINS_12basic_stringIcNS_11char_traitsIcEENS_9allocatorIcEEEES7_EERNS5_IS8_EEE7__allocB8ue170006Ev, symObjAddr: 0x3DFC, symBinAddr: 0x1000140E0, symSize: 0x28 }
  - { offsetInCU: 0x147A9, offset: 0x51A7B, size: 0x8, addend: 0x0, symName: __ZNSt3__114__split_bufferINS_4pairINS_12basic_stringIcNS_11char_traitsIcEENS_9allocatorIcEEEES7_EERNS5_IS8_EEE9__end_capB8ue170006Ev, symObjAddr: 0x3E24, symBinAddr: 0x100014108, symSize: 0x28 }
  - { offsetInCU: 0x147CF, offset: 0x51AA1, size: 0x8, addend: 0x0, symName: __ZNSt3__117__compressed_pairIPNS_4pairINS_12basic_stringIcNS_11char_traitsIcEENS_9allocatorIcEEEES7_EERNS5_IS8_EEEC2B8ue170006IDnSB_EEOT_OT0_, symObjAddr: 0x3E4C, symBinAddr: 0x100014130, symSize: 0x48 }
  - { offsetInCU: 0x14827, offset: 0x51AF9, size: 0x8, addend: 0x0, symName: __ZNSt3__122__compressed_pair_elemIRNS_9allocatorINS_4pairINS_12basic_stringIcNS_11char_traitsIcEENS1_IcEEEES7_EEEELi1ELb0EEC2B8ue170006ISA_vEEOT_, symObjAddr: 0x3E94, symBinAddr: 0x100014178, symSize: 0x20 }
  - { offsetInCU: 0x14869, offset: 0x51B3B, size: 0x8, addend: 0x0, symName: __ZNSt3__19allocatorINS_4pairINS_12basic_stringIcNS_11char_traitsIcEENS0_IcEEEES6_EEE8allocateB8ue170006Em, symObjAddr: 0x3EB4, symBinAddr: 0x100014198, symSize: 0x5C }
  - { offsetInCU: 0x1489D, offset: 0x51B6F, size: 0x8, addend: 0x0, symName: __ZNSt3__117__compressed_pairIPNS_4pairINS_12basic_stringIcNS_11char_traitsIcEENS_9allocatorIcEEEES7_EERNS5_IS8_EEE6secondB8ue170006Ev, symObjAddr: 0x3FF4, symBinAddr: 0x1000141F4, symSize: 0x28 }
  - { offsetInCU: 0x148C3, offset: 0x51B95, size: 0x8, addend: 0x0, symName: __ZNSt3__122__compressed_pair_elemIRNS_9allocatorINS_4pairINS_12basic_stringIcNS_11char_traitsIcEENS1_IcEEEES7_EEEELi1ELb0EE5__getB8ue170006Ev, symObjAddr: 0x401C, symBinAddr: 0x10001421C, symSize: 0x18 }
  - { offsetInCU: 0x148E9, offset: 0x51BBB, size: 0x8, addend: 0x0, symName: __ZNSt3__117__compressed_pairIPNS_4pairINS_12basic_stringIcNS_11char_traitsIcEENS_9allocatorIcEEEES7_EERNS5_IS8_EEE5firstB8ue170006Ev, symObjAddr: 0x4034, symBinAddr: 0x100014234, symSize: 0x24 }
  - { offsetInCU: 0x1490F, offset: 0x51BE1, size: 0x8, addend: 0x0, symName: __ZNSt3__116reverse_iteratorIPNS_4pairINS_12basic_stringIcNS_11char_traitsIcEENS_9allocatorIcEEEES7_EEEC1B8ue170006ES9_, symObjAddr: 0x4184, symBinAddr: 0x100014384, symSize: 0x34 }
  - { offsetInCU: 0x14947, offset: 0x51C19, size: 0x8, addend: 0x0, symName: __ZNKSt3__116reverse_iteratorIPNS_4pairINS_12basic_stringIcNS_11char_traitsIcEENS_9allocatorIcEEEES7_EEE4baseB8ue170006Ev, symObjAddr: 0x41B8, symBinAddr: 0x1000143B8, symSize: 0x18 }
  - { offsetInCU: 0x1496D, offset: 0x51C3F, size: 0x8, addend: 0x0, symName: __ZNKSt3__16vectorINS_4pairINS_12basic_stringIcNS_11char_traitsIcEENS_9allocatorIcEEEES7_EENS5_IS8_EEE14__annotate_newB8ue170006Em, symObjAddr: 0x420C, symBinAddr: 0x10001440C, symSize: 0xC8 }
  - { offsetInCU: 0x149A2, offset: 0x51C74, size: 0x8, addend: 0x0, symName: __ZNSt3__129_AllocatorDestroyRangeReverseINS_9allocatorINS_4pairINS_12basic_stringIcNS_11char_traitsIcEENS1_IcEEEES7_EEEENS_16reverse_iteratorIPS8_EEEC1B8ue170006ERS9_RSC_SF_, symObjAddr: 0x4320, symBinAddr: 0x100014520, symSize: 0x44 }
  - { offsetInCU: 0x149F9, offset: 0x51CCB, size: 0x8, addend: 0x0, symName: __ZNSt3__116allocator_traitsINS_9allocatorINS_4pairINS_12basic_stringIcNS_11char_traitsIcEENS1_IcEEEES7_EEEEE9constructB8ue170006IS8_JS8_EvEEvRS9_PT_DpOT0_, symObjAddr: 0x43AC, symBinAddr: 0x1000145AC, symSize: 0x34 }
  - { offsetInCU: 0x14A50, offset: 0x51D22, size: 0x8, addend: 0x0, symName: __ZNKSt3__116reverse_iteratorIPNS_4pairINS_12basic_stringIcNS_11char_traitsIcEENS_9allocatorIcEEEES7_EEEdeB8ue170006Ev, symObjAddr: 0x4404, symBinAddr: 0x100014604, symSize: 0x28 }
  - { offsetInCU: 0x14A84, offset: 0x51D56, size: 0x8, addend: 0x0, symName: __ZNSt3__116reverse_iteratorIPNS_4pairINS_12basic_stringIcNS_11char_traitsIcEENS_9allocatorIcEEEES7_EEEppB8ue170006Ev, symObjAddr: 0x442C, symBinAddr: 0x10001462C, symSize: 0x20 }
  - { offsetInCU: 0x14AAA, offset: 0x51D7C, size: 0x8, addend: 0x0, symName: __ZNSt3__128__exception_guard_exceptionsINS_29_AllocatorDestroyRangeReverseINS_9allocatorINS_4pairINS_12basic_stringIcNS_11char_traitsIcEENS2_IcEEEES8_EEEENS_16reverse_iteratorIPS9_EEEEE10__completeB8ue170006Ev, symObjAddr: 0x444C, symBinAddr: 0x10001464C, symSize: 0x1C }
  - { offsetInCU: 0x14AD0, offset: 0x51DA2, size: 0x8, addend: 0x0, symName: __ZNSt3__128__exception_guard_exceptionsINS_29_AllocatorDestroyRangeReverseINS_9allocatorINS_4pairINS_12basic_stringIcNS_11char_traitsIcEENS2_IcEEEES8_EEEENS_16reverse_iteratorIPS9_EEEEED1B8ue170006Ev, symObjAddr: 0x4468, symBinAddr: 0x100014668, symSize: 0x2C }
  - { offsetInCU: 0x14AFA, offset: 0x51DCC, size: 0x8, addend: 0x0, symName: __ZNSt3__128__exception_guard_exceptionsINS_29_AllocatorDestroyRangeReverseINS_9allocatorINS_4pairINS_12basic_stringIcNS_11char_traitsIcEENS2_IcEEEES8_EEEENS_16reverse_iteratorIPS9_EEEEEC1B8ue170006ESE_, symObjAddr: 0x4494, symBinAddr: 0x100014694, symSize: 0x34 }
  - { offsetInCU: 0x14B33, offset: 0x51E05, size: 0x8, addend: 0x0, symName: __ZNSt3__128__exception_guard_exceptionsINS_29_AllocatorDestroyRangeReverseINS_9allocatorINS_4pairINS_12basic_stringIcNS_11char_traitsIcEENS2_IcEEEES8_EEEENS_16reverse_iteratorIPS9_EEEEEC2B8ue170006ESE_, symObjAddr: 0x44C8, symBinAddr: 0x1000146C8, symSize: 0x30 }
  - { offsetInCU: 0x14B6C, offset: 0x51E3E, size: 0x8, addend: 0x0, symName: __ZNSt3__129_AllocatorDestroyRangeReverseINS_9allocatorINS_4pairINS_12basic_stringIcNS_11char_traitsIcEENS1_IcEEEES7_EEEENS_16reverse_iteratorIPS8_EEEC2B8ue170006ERS9_RSC_SF_, symObjAddr: 0x44F8, symBinAddr: 0x1000146F8, symSize: 0x38 }
  - { offsetInCU: 0x14BC3, offset: 0x51E95, size: 0x8, addend: 0x0, symName: __ZNSt3__19allocatorINS_4pairINS_12basic_stringIcNS_11char_traitsIcEENS0_IcEEEES6_EEE9constructB8ue170006IS7_JS7_EEEvPT_DpOT0_, symObjAddr: 0x4530, symBinAddr: 0x100014730, symSize: 0x30 }
  - { offsetInCU: 0x14C19, offset: 0x51EEB, size: 0x8, addend: 0x0, symName: __ZNSt3__14pairINS_12basic_stringIcNS_11char_traitsIcEENS_9allocatorIcEEEES6_EC1B8ue170006EOS7_, symObjAddr: 0x4560, symBinAddr: 0x100014760, symSize: 0x34 }
  - { offsetInCU: 0x14C4D, offset: 0x51F1F, size: 0x8, addend: 0x0, symName: __ZNSt3__14pairINS_12basic_stringIcNS_11char_traitsIcEENS_9allocatorIcEEEES6_EC2B8ue170006EOS7_, symObjAddr: 0x4594, symBinAddr: 0x100014794, symSize: 0x48 }
  - { offsetInCU: 0x14C86, offset: 0x51F58, size: 0x8, addend: 0x0, symName: __ZNSt3__119__to_address_helperINS_16reverse_iteratorIPNS_4pairINS_12basic_stringIcNS_11char_traitsIcEENS_9allocatorIcEEEES8_EEEEvE6__callB8ue170006ERKSB_, symObjAddr: 0x45DC, symBinAddr: 0x1000147DC, symSize: 0x38 }
  - { offsetInCU: 0x14CA9, offset: 0x51F7B, size: 0x8, addend: 0x0, symName: __ZNKSt3__116reverse_iteratorIPNS_4pairINS_12basic_stringIcNS_11char_traitsIcEENS_9allocatorIcEEEES7_EEEptB8ue170006Ev, symObjAddr: 0x4614, symBinAddr: 0x100014814, symSize: 0x24 }
  - { offsetInCU: 0x14CCF, offset: 0x51FA1, size: 0x8, addend: 0x0, symName: __ZNSt3__128__exception_guard_exceptionsINS_29_AllocatorDestroyRangeReverseINS_9allocatorINS_4pairINS_12basic_stringIcNS_11char_traitsIcEENS2_IcEEEES8_EEEENS_16reverse_iteratorIPS9_EEEEED2B8ue170006Ev, symObjAddr: 0x4638, symBinAddr: 0x100014838, symSize: 0x50 }
  - { offsetInCU: 0x14CF9, offset: 0x51FCB, size: 0x8, addend: 0x0, symName: __ZNKSt3__129_AllocatorDestroyRangeReverseINS_9allocatorINS_4pairINS_12basic_stringIcNS_11char_traitsIcEENS1_IcEEEES7_EEEENS_16reverse_iteratorIPS8_EEEclB8ue170006Ev, symObjAddr: 0x4688, symBinAddr: 0x100014888, symSize: 0xB4 }
  - { offsetInCU: 0x14D20, offset: 0x51FF2, size: 0x8, addend: 0x0, symName: __ZNSt3__116reverse_iteratorINS0_IPNS_4pairINS_12basic_stringIcNS_11char_traitsIcEENS_9allocatorIcEEEES7_EEEEEC1B8ue170006ESA_, symObjAddr: 0x47AC, symBinAddr: 0x1000149AC, symSize: 0x3C }
  - { offsetInCU: 0x14D58, offset: 0x5202A, size: 0x8, addend: 0x0, symName: __ZNSt3__116reverse_iteratorINS0_IPNS_4pairINS_12basic_stringIcNS_11char_traitsIcEENS_9allocatorIcEEEES7_EEEEEppB8ue170006Ev, symObjAddr: 0x486C, symBinAddr: 0x100014A6C, symSize: 0x30 }
  - { offsetInCU: 0x14D7E, offset: 0x52050, size: 0x8, addend: 0x0, symName: __ZNKSt3__116reverse_iteratorINS0_IPNS_4pairINS_12basic_stringIcNS_11char_traitsIcEENS_9allocatorIcEEEES7_EEEEE4baseB8ue170006Ev, symObjAddr: 0x489C, symBinAddr: 0x100014A9C, symSize: 0x24 }
  - { offsetInCU: 0x14DA9, offset: 0x5207B, size: 0x8, addend: 0x0, symName: __ZNSt3__119__to_address_helperINS_16reverse_iteratorINS1_IPNS_4pairINS_12basic_stringIcNS_11char_traitsIcEENS_9allocatorIcEEEES8_EEEEEEvE6__callB8ue170006ERKSC_, symObjAddr: 0x48C0, symBinAddr: 0x100014AC0, symSize: 0x38 }
  - { offsetInCU: 0x14DCC, offset: 0x5209E, size: 0x8, addend: 0x0, symName: __ZNKSt3__116reverse_iteratorINS0_IPNS_4pairINS_12basic_stringIcNS_11char_traitsIcEENS_9allocatorIcEEEES7_EEEEEptB8ue170006Ev, symObjAddr: 0x48F8, symBinAddr: 0x100014AF8, symSize: 0x24 }
  - { offsetInCU: 0x14DF2, offset: 0x520C4, size: 0x8, addend: 0x0, symName: __ZNKSt3__116reverse_iteratorINS0_IPNS_4pairINS_12basic_stringIcNS_11char_traitsIcEENS_9allocatorIcEEEES7_EEEEEdeB8ue170006Ev, symObjAddr: 0x491C, symBinAddr: 0x100014B1C, symSize: 0x34 }
  - { offsetInCU: 0x14E26, offset: 0x520F8, size: 0x8, addend: 0x0, symName: __ZNSt3__116reverse_iteratorIPNS_4pairINS_12basic_stringIcNS_11char_traitsIcEENS_9allocatorIcEEEES7_EEEmmB8ue170006Ev, symObjAddr: 0x4950, symBinAddr: 0x100014B50, symSize: 0x20 }
  - { offsetInCU: 0x14E4C, offset: 0x5211E, size: 0x8, addend: 0x0, symName: __ZNSt3__116reverse_iteratorINS0_IPNS_4pairINS_12basic_stringIcNS_11char_traitsIcEENS_9allocatorIcEEEES7_EEEEEC2B8ue170006ESA_, symObjAddr: 0x4970, symBinAddr: 0x100014B70, symSize: 0x2C }
  - { offsetInCU: 0x14E84, offset: 0x52156, size: 0x8, addend: 0x0, symName: __ZNSt3__116reverse_iteratorIPNS_4pairINS_12basic_stringIcNS_11char_traitsIcEENS_9allocatorIcEEEES7_EEEC2B8ue170006ES9_, symObjAddr: 0x499C, symBinAddr: 0x100014B9C, symSize: 0x28 }
  - { offsetInCU: 0x14EBC, offset: 0x5218E, size: 0x8, addend: 0x0, symName: __ZNSt3__114__split_bufferINS_4pairINS_12basic_stringIcNS_11char_traitsIcEENS_9allocatorIcEEEES7_EERNS5_IS8_EEED2Ev, symObjAddr: 0x49C4, symBinAddr: 0x100014BC4, symSize: 0x8C }
  - { offsetInCU: 0x14EE8, offset: 0x521BA, size: 0x8, addend: 0x0, symName: __ZNSt3__114__split_bufferINS_4pairINS_12basic_stringIcNS_11char_traitsIcEENS_9allocatorIcEEEES7_EERNS5_IS8_EEE5clearB8ue170006Ev, symObjAddr: 0x4A50, symBinAddr: 0x100014C50, symSize: 0x28 }
  - { offsetInCU: 0x14F0E, offset: 0x521E0, size: 0x8, addend: 0x0, symName: __ZNKSt3__114__split_bufferINS_4pairINS_12basic_stringIcNS_11char_traitsIcEENS_9allocatorIcEEEES7_EERNS5_IS8_EEE8capacityB8ue170006Ev, symObjAddr: 0x4A78, symBinAddr: 0x100014C78, symSize: 0x40 }
  - { offsetInCU: 0x14F34, offset: 0x52206, size: 0x8, addend: 0x0, symName: __ZNSt3__114__split_bufferINS_4pairINS_12basic_stringIcNS_11char_traitsIcEENS_9allocatorIcEEEES7_EERNS5_IS8_EEE17__destruct_at_endB8ue170006EPS8_, symObjAddr: 0x4AB8, symBinAddr: 0x100014CB8, symSize: 0x2C }
  - { offsetInCU: 0x14F68, offset: 0x5223A, size: 0x8, addend: 0x0, symName: __ZNSt3__114__split_bufferINS_4pairINS_12basic_stringIcNS_11char_traitsIcEENS_9allocatorIcEEEES7_EERNS5_IS8_EEE17__destruct_at_endB8ue170006EPS8_NS_17integral_constantIbLb0EEE, symObjAddr: 0x4AE4, symBinAddr: 0x100014CE4, symSize: 0x80 }
  - { offsetInCU: 0x14FA8, offset: 0x5227A, size: 0x8, addend: 0x0, symName: __ZNKSt3__114__split_bufferINS_4pairINS_12basic_stringIcNS_11char_traitsIcEENS_9allocatorIcEEEES7_EERNS5_IS8_EEE9__end_capB8ue170006Ev, symObjAddr: 0x4B64, symBinAddr: 0x100014D64, symSize: 0x28 }
  - { offsetInCU: 0x14FCE, offset: 0x522A0, size: 0x8, addend: 0x0, symName: __ZNKSt3__117__compressed_pairIPNS_4pairINS_12basic_stringIcNS_11char_traitsIcEENS_9allocatorIcEEEES7_EERNS5_IS8_EEE5firstB8ue170006Ev, symObjAddr: 0x4B8C, symBinAddr: 0x100014D8C, symSize: 0x24 }
  - { offsetInCU: 0x14FF4, offset: 0x522C6, size: 0x8, addend: 0x0, symName: __ZNSt3__16vectorINS_4pairINS_12basic_stringIcNS_11char_traitsIcEENS_9allocatorIcEEEES7_EENS5_IS8_EEE11__make_iterB8ue170006EPS8_, symObjAddr: 0x4BB0, symBinAddr: 0x100014DB0, symSize: 0x30 }
  - { offsetInCU: 0x15029, offset: 0x522FB, size: 0x8, addend: 0x0, symName: __ZNSt3__111__wrap_iterIPNS_4pairINS_12basic_stringIcNS_11char_traitsIcEENS_9allocatorIcEEEES7_EEEC1B8ue170006ES9_, symObjAddr: 0x4BE0, symBinAddr: 0x100014DE0, symSize: 0x34 }
  - { offsetInCU: 0x15061, offset: 0x52333, size: 0x8, addend: 0x0, symName: __ZNSt3__111__wrap_iterIPNS_4pairINS_12basic_stringIcNS_11char_traitsIcEENS_9allocatorIcEEEES7_EEEC2B8ue170006ES9_, symObjAddr: 0x4C14, symBinAddr: 0x100014E14, symSize: 0x20 }
  - { offsetInCU: 0x15099, offset: 0x5236B, size: 0x8, addend: 0x0, symName: __ZNKSt3__16vectorIPN6seneca11WorkstationENS_9allocatorIS3_EEE11__make_iterB8ue170006EPKS3_, symObjAddr: 0x4C34, symBinAddr: 0x100014E34, symSize: 0x30 }
  - { offsetInCU: 0x150CE, offset: 0x523A0, size: 0x8, addend: 0x0, symName: __ZNSt3__111__wrap_iterIPKPN6seneca11WorkstationEEC1B8ue170006ES5_, symObjAddr: 0x4C64, symBinAddr: 0x100014E64, symSize: 0x34 }
  - { offsetInCU: 0x15106, offset: 0x523D8, size: 0x8, addend: 0x0, symName: __ZNSt3__111__wrap_iterIPKPN6seneca11WorkstationEEC2B8ue170006ES5_, symObjAddr: 0x4C98, symBinAddr: 0x100014E98, symSize: 0x20 }
  - { offsetInCU: 0x15148, offset: 0x5241A, size: 0x8, addend: 0x0, symName: '__ZZN6seneca11LineManagerC1ERKNSt3__112basic_stringIcNS1_11char_traitsIcEENS1_9allocatorIcEEEERKNS1_6vectorIPNS_11WorkstationENS5_ISC_EEEEENK3$_0clESC_', symObjAddr: 0x4CB8, symBinAddr: 0x100014EB8, symSize: 0x40 }
  - { offsetInCU: 0x15180, offset: 0x52452, size: 0x8, addend: 0x0, symName: __ZNSt3__111__wrap_iterIPKPN6seneca11WorkstationEEppB8ue170006Ev, symObjAddr: 0x4CF8, symBinAddr: 0x100014EF8, symSize: 0x20 }
  - { offsetInCU: 0x151B0, offset: 0x52482, size: 0x8, addend: 0x0, symName: '__ZZN6seneca11LineManagerC1ERKNSt3__112basic_stringIcNS1_11char_traitsIcEENS1_9allocatorIcEEEERKNS1_6vectorIPNS_11WorkstationENS5_ISC_EEEEENK3$_1clESC_', symObjAddr: 0x4E94, symBinAddr: 0x100014F18, symSize: 0x40 }
  - { offsetInCU: 0x151E8, offset: 0x524BA, size: 0x8, addend: 0x0, symName: __ZNSt3__16vectorIPN6seneca11WorkstationENS_9allocatorIS3_EEE22__construct_one_at_endB8ue170006IJRKS3_EEEvDpOT_, symObjAddr: 0x4EFC, symBinAddr: 0x100014F58, symSize: 0x90 }
  - { offsetInCU: 0x15237, offset: 0x52509, size: 0x8, addend: 0x0, symName: __ZNSt3__16vectorIPN6seneca11WorkstationENS_9allocatorIS3_EEE21__push_back_slow_pathIRKS3_EEvOT_, symObjAddr: 0x4F8C, symBinAddr: 0x100014FE8, symSize: 0xD8 }
  - { offsetInCU: 0x152AE, offset: 0x52580, size: 0x8, addend: 0x0, symName: __ZNSt3__116allocator_traitsINS_9allocatorIPN6seneca11WorkstationEEEE9constructB8ue170006IS4_JRKS4_EvEEvRS5_PT_DpOT0_, symObjAddr: 0x50D8, symBinAddr: 0x1000150C0, symSize: 0x34 }
  - { offsetInCU: 0x15305, offset: 0x525D7, size: 0x8, addend: 0x0, symName: __ZNSt3__19allocatorIPN6seneca11WorkstationEE9constructB8ue170006IS3_JRKS3_EEEvPT_DpOT0_, symObjAddr: 0x517C, symBinAddr: 0x1000150F4, symSize: 0x28 }
  - { offsetInCU: 0x1536F, offset: 0x52641, size: 0x8, addend: 0x0, symName: '__ZZN6seneca11LineManagerC1ERKNSt3__112basic_stringIcNS1_11char_traitsIcEENS1_9allocatorIcEEEERKNS1_6vectorIPNS_11WorkstationENS5_ISC_EEEEENK3$_2clESC_', symObjAddr: 0x61E8, symBinAddr: 0x10001511C, symSize: 0x68 }
  - { offsetInCU: 0x153DC, offset: 0x526AE, size: 0x8, addend: 0x0, symName: '__ZZZN6seneca11LineManagerC1ERKNSt3__112basic_stringIcNS1_11char_traitsIcEENS1_9allocatorIcEEEERKNS1_6vectorIPNS_11WorkstationENS5_ISC_EEEEENK3$_2clESC_ENKUlRKNS1_4pairIS7_S7_EEE_clESL_', symObjAddr: 0x62E8, symBinAddr: 0x10001521C, symSize: 0x40 }
  - { offsetInCU: 0x15414, offset: 0x526E6, size: 0x8, addend: 0x0, symName: __ZNSt3__16vectorIPN6seneca11WorkstationENS_9allocatorIS3_EEE19__copy_assign_allocB8ue170006ERKS6_, symObjAddr: 0x6328, symBinAddr: 0x10001525C, symSize: 0x2C }
  - { offsetInCU: 0x15449, offset: 0x5271B, size: 0x8, addend: 0x0, symName: __ZNSt3__16vectorIPN6seneca11WorkstationENS_9allocatorIS3_EEE6assignIPS3_Li0EEEvT_S9_, symObjAddr: 0x6354, symBinAddr: 0x100015288, symSize: 0x5C }
  - { offsetInCU: 0x1549E, offset: 0x52770, size: 0x8, addend: 0x0, symName: __ZNSt3__16vectorIPN6seneca11WorkstationENS_9allocatorIS3_EEE19__copy_assign_allocB8ue170006ERKS6_NS_17integral_constantIbLb0EEE, symObjAddr: 0x63B0, symBinAddr: 0x1000152E4, symSize: 0x14 }
  - { offsetInCU: 0x154DA, offset: 0x527AC, size: 0x8, addend: 0x0, symName: __ZNSt3__16vectorIPN6seneca11WorkstationENS_9allocatorIS3_EEE18__assign_with_sizeB8ue170006IPS3_S8_EEvT_T0_l, symObjAddr: 0x63C4, symBinAddr: 0x1000152F8, symSize: 0x164 }
  - { offsetInCU: 0x1558A, offset: 0x5285C, size: 0x8, addend: 0x0, symName: __ZNSt3__16vectorIPN6seneca11WorkstationENS_9allocatorIS3_EEE18__construct_at_endIPS3_S8_EEvT_T0_m, symObjAddr: 0x65C8, symBinAddr: 0x1000154FC, symSize: 0x8C }
  - { offsetInCU: 0x15600, offset: 0x528D2, size: 0x8, addend: 0x0, symName: __ZNSt3__16vectorIPN6seneca11WorkstationENS_9allocatorIS3_EEE17__destruct_at_endB8ue170006EPS3_, symObjAddr: 0x6698, symBinAddr: 0x1000155CC, symSize: 0x4C }
  - { offsetInCU: 0x15644, offset: 0x52916, size: 0x8, addend: 0x0, symName: __ZNSt3__16vectorIPN6seneca11WorkstationENS_9allocatorIS3_EEE13__vdeallocateEv, symObjAddr: 0x66E4, symBinAddr: 0x100015618, symSize: 0x94 }
  - { offsetInCU: 0x1566C, offset: 0x5293E, size: 0x8, addend: 0x0, symName: __ZNSt3__16vectorIPN6seneca11WorkstationENS_9allocatorIS3_EEE11__vallocateB8ue170006Em, symObjAddr: 0x6778, symBinAddr: 0x1000156AC, symSize: 0xAC }
  - { offsetInCU: 0x156D0, offset: 0x529A2, size: 0x8, addend: 0x0, symName: __ZNSt3__14pairIPPN6seneca11WorkstationES4_EC1B8ue170006IS4_S4_LPv0EEEOT_OT0_, symObjAddr: 0x6A48, symBinAddr: 0x10001597C, symSize: 0x3C }
  - { offsetInCU: 0x1572E, offset: 0x52A00, size: 0x8, addend: 0x0, symName: __ZNSt3__14pairIPPN6seneca11WorkstationES4_EC2B8ue170006IS4_S4_LPv0EEEOT_OT0_, symObjAddr: 0x6A84, symBinAddr: 0x1000159B8, symSize: 0x34 }
  - { offsetInCU: 0x1578C, offset: 0x52A5E, size: 0x8, addend: 0x0, symName: __ZNSt3__118__unwrap_iter_implIPPN6seneca11WorkstationELb1EE8__unwrapB8ue170006ES4_, symObjAddr: 0x6AB8, symBinAddr: 0x1000159EC, symSize: 0x24 }
  - { offsetInCU: 0x157AF, offset: 0x52A81, size: 0x8, addend: 0x0, symName: __ZNSt3__118__unwrap_iter_implIPPN6seneca11WorkstationELb1EE8__rewrapB8ue170006ES4_S4_, symObjAddr: 0x6ADC, symBinAddr: 0x100015A10, symSize: 0x50 }
  - { offsetInCU: 0x157EA, offset: 0x52ABC, size: 0x8, addend: 0x0, symName: __ZNKSt3__114__copy_trivialclB8ue170006IPN6seneca11WorkstationES4_Li0EEENS_4pairIPT_PT0_EES7_S7_S9_, symObjAddr: 0x6C24, symBinAddr: 0x100015B58, symSize: 0x48 }
  - { offsetInCU: 0x15852, offset: 0x52B24, size: 0x8, addend: 0x0, symName: __ZNSt3__14pairIPPN6seneca11WorkstationES4_EC1B8ue170006IRS4_S4_LPv0EEEOT_OT0_, symObjAddr: 0x6DB4, symBinAddr: 0x100015CE8, symSize: 0x3C }
  - { offsetInCU: 0x158B0, offset: 0x52B82, size: 0x8, addend: 0x0, symName: __ZNSt3__14pairIPPN6seneca11WorkstationES4_EC2B8ue170006IRS4_S4_LPv0EEEOT_OT0_, symObjAddr: 0x6DF0, symBinAddr: 0x100015D24, symSize: 0x34 }
  - { offsetInCU: 0x1590E, offset: 0x52BE0, size: 0x8, addend: 0x0, symName: __ZNKSt3__16vectorIPN6seneca11WorkstationENS_9allocatorIS3_EEE17__annotate_shrinkB8ue170006Em, symObjAddr: 0x6E24, symBinAddr: 0x100015D58, symSize: 0xB4 }
  - { offsetInCU: 0x15943, offset: 0x52C15, size: 0x8, addend: 0x0, symName: __ZNSt3__16vectorIPN6seneca11WorkstationENS_9allocatorIS3_EEE5clearB8ue170006Ev, symObjAddr: 0x6ED8, symBinAddr: 0x100015E0C, symSize: 0x44 }
  - { offsetInCU: 0x159A0, offset: 0x52C72, size: 0x8, addend: 0x0, symName: '__ZZN6seneca11LineManager3runERNSt3__113basic_ostreamIcNS1_11char_traitsIcEEEEENK3$_3clEPNS_11WorkstationE', symObjAddr: 0x81F8, symBinAddr: 0x100015E78, symSize: 0x30 }
  - { offsetInCU: 0x159E2, offset: 0x52CB4, size: 0x8, addend: 0x0, symName: '__ZZN6seneca11LineManager3runERNSt3__113basic_ostreamIcNS1_11char_traitsIcEEEEENK3$_4clEPNS_11WorkstationE', symObjAddr: 0x82C0, symBinAddr: 0x100015EA8, symSize: 0x28 }
  - { offsetInCU: 0x15A24, offset: 0x52CF6, size: 0x8, addend: 0x0, symName: '__ZZNK6seneca11LineManager7displayERNSt3__113basic_ostreamIcNS1_11char_traitsIcEEEEENK3$_5clEPNS_11WorkstationE', symObjAddr: 0x82E8, symBinAddr: 0x100015ED0, symSize: 0x30 }
...
