---
triple:          'arm64-apple-darwin'
binary-path:     output
relocations:
  - { offsetInCU: 0x5C, offset: 0x5C, size: 0x8, addend: 0x0, symName: __ZNSt3__119piecewise_constructE, symObjAddr: 0x6FF2, symBinAddr: 0x1000079EA, symSize: 0x0 }
  - { offsetInCU: 0x4287, offset: 0x4287, size: 0x8, addend: 0x0, symName: __ZNSt3__124__put_character_sequenceB8ue170006IcNS_11char_traitsIcEEEERNS_13basic_ostreamIT_T0_EES7_PKS4_m, symObjAddr: 0x2844, symBinAddr: 0x100003044, symSize: 0x1EC }
  - { offsetInCU: 0x62B0, offset: 0x62B0, size: 0x8, addend: 0x0, symName: '__ZNSt3__110__function10__not_nullB8ue170006IZ4mainE3$_1EEbRKT_', symObjAddr: 0x4FC8, symBinAddr: 0x1000057C8, symSize: 0x18 }
  - { offsetInCU: 0x924D, offset: 0x924D, size: 0x8, addend: 0x0, symName: '__ZNSt3__19transformB8ue170006INS_11__wrap_iterIPiEES3_Z4mainE3$_0EET0_T_S6_S5_T1_', symObjAddr: 0x54C, symBinAddr: 0x100000D4C, symSize: 0x8C }
  - { offsetInCU: 0x92BF, offset: 0x92BF, size: 0x8, addend: 0x0, symName: __ZNSt3__1neB8ue170006IPiEEbRKNS_11__wrap_iterIT_EES6_, symObjAddr: 0x638, symBinAddr: 0x100000E38, symSize: 0x34 }
  - { offsetInCU: 0x9301, offset: 0x9301, size: 0x8, addend: 0x0, symName: __ZNSt3__14endlB8ue170006IcNS_11char_traitsIcEEEERNS_13basic_ostreamIT_T0_EES7_, symObjAddr: 0x6B0, symBinAddr: 0x100000EB0, symSize: 0x58 }
  - { offsetInCU: 0x9341, offset: 0x9341, size: 0x8, addend: 0x0, symName: __ZNSt3__1lsB8ue170006INS_11char_traitsIcEEEERNS_13basic_ostreamIcT_EES6_PKc, symObjAddr: 0x728, symBinAddr: 0x100000F28, symSize: 0x48 }
  - { offsetInCU: 0x9388, offset: 0x9388, size: 0x8, addend: 0x0, symName: __ZNSt3__1neB8ue170006IPNS_8functionIFvvEEEEEbRKNS_11__wrap_iterIT_EES9_, symObjAddr: 0x8D0, symBinAddr: 0x1000010D0, symSize: 0x34 }
  - { offsetInCU: 0x93CA, offset: 0x93CA, size: 0x8, addend: 0x0, symName: '__ZNSt3__18count_ifB8ue170006IPiZ4mainE3$_2EENS_15iterator_traitsIT_E15difference_typeES4_S4_T0_', symObjAddr: 0x994, symBinAddr: 0x100001194, symSize: 0x80 }
  - { offsetInCU: 0x9433, offset: 0x9433, size: 0x8, addend: 0x0, symName: __ZNSt3__113inner_productB8ue170006IPiS1_iEET1_T_S3_T0_S2_, symObjAddr: 0xA14, symBinAddr: 0x100001214, symSize: 0x7C }
  - { offsetInCU: 0x94A3, offset: 0x94A3, size: 0x8, addend: 0x0, symName: '__ZNSt3__113inner_productB8ue170006IPiS1_iNS_4plusIiEEZ4mainE3$_3EET1_T_S6_T0_S5_T2_T3_', symObjAddr: 0xA90, symBinAddr: 0x100001290, symSize: 0x98 }
  - { offsetInCU: 0x9543, offset: 0x9543, size: 0x8, addend: 0x0, symName: __ZNSt3__1eqB8ue170006IPiEEbRKNS_11__wrap_iterIT_EES6_, symObjAddr: 0xB80, symBinAddr: 0x100001380, symSize: 0x48 }
  - { offsetInCU: 0x9586, offset: 0x9586, size: 0x8, addend: 0x0, symName: __ZNSt3__1eqB8ue170006IPNS_8functionIFvvEEEEEbRKNS_11__wrap_iterIT_EES9_, symObjAddr: 0xBE0, symBinAddr: 0x1000013E0, symSize: 0x48 }
  - { offsetInCU: 0x95C9, offset: 0x95C9, size: 0x8, addend: 0x0, symName: __ZNSt3__122__make_exception_guardB8ue170006INS_6vectorIiNS_9allocatorIiEEE16__destroy_vectorEEENS_28__exception_guard_exceptionsIT_EES7_, symObjAddr: 0xD9C, symBinAddr: 0x10000159C, symSize: 0x40 }
  - { offsetInCU: 0x95FE, offset: 0x95FE, size: 0x8, addend: 0x0, symName: __ZNSt3__119__allocate_at_leastB8ue170006INS_9allocatorIiEEEENS_19__allocation_resultINS_16allocator_traitsIT_E7pointerEEERS5_m, symObjAddr: 0x119C, symBinAddr: 0x10000199C, symSize: 0x40 }
  - { offsetInCU: 0x9641, offset: 0x9641, size: 0x8, addend: 0x0, symName: __ZNSt3__13minB8ue170006ImEERKT_S3_S3_, symObjAddr: 0x12D8, symBinAddr: 0x100001AD8, symSize: 0x2C }
  - { offsetInCU: 0x986E, offset: 0x986E, size: 0x8, addend: 0x0, symName: __ZNSt3__13minB8ue170006ImNS_6__lessIvvEEEERKT_S5_S5_T0_, symObjAddr: 0x1370, symBinAddr: 0x100001B70, symSize: 0x54 }
  - { offsetInCU: 0x990F, offset: 0x990F, size: 0x8, addend: 0x0, symName: __ZNSt3__120__throw_length_errorB8ue170006EPKc, symObjAddr: 0x144C, symBinAddr: 0x100001C4C, symSize: 0x64 }
  - { offsetInCU: 0x9939, offset: 0x9939, size: 0x8, addend: 0x0, symName: __ZNSt3__117__libcpp_allocateB8ue170006Emm, symObjAddr: 0x15BC, symBinAddr: 0x100001DBC, symSize: 0x60 }
  - { offsetInCU: 0x9995, offset: 0x9995, size: 0x8, addend: 0x0, symName: __ZNSt3__124__is_overaligned_for_newB8ue170006Em, symObjAddr: 0x161C, symBinAddr: 0x100001E1C, symSize: 0x20 }
  - { offsetInCU: 0x99C3, offset: 0x99C3, size: 0x8, addend: 0x0, symName: __ZNSt3__121__libcpp_operator_newB8ue170006IJmSt11align_val_tEEEPvDpT_, symObjAddr: 0x163C, symBinAddr: 0x100001E3C, symSize: 0x2C }
  - { offsetInCU: 0x9A10, offset: 0x9A10, size: 0x8, addend: 0x0, symName: __ZNSt3__121__libcpp_operator_newB8ue170006IJmEEEPvDpT_, symObjAddr: 0x1668, symBinAddr: 0x100001E68, symSize: 0x24 }
  - { offsetInCU: 0x9A4A, offset: 0x9A4A, size: 0x8, addend: 0x0, symName: __ZNSt3__112__to_addressB8ue170006IiEEPT_S2_, symObjAddr: 0x1784, symBinAddr: 0x100001F84, symSize: 0x14 }
  - { offsetInCU: 0x9A7E, offset: 0x9A7E, size: 0x8, addend: 0x0, symName: __ZNSt3__130__uninitialized_allocator_copyB8ue170006INS_9allocatorIiEEPKiS4_PiEET2_RT_T0_T1_S6_, symObjAddr: 0x1834, symBinAddr: 0x100002034, symSize: 0x80 }
  - { offsetInCU: 0x9B1C, offset: 0x9B1C, size: 0x8, addend: 0x0, symName: __ZNSt3__114__unwrap_rangeB8ue170006IPKiS2_EENS_4pairIT0_S4_EET_S6_, symObjAddr: 0x1924, symBinAddr: 0x100002124, symSize: 0x60 }
  - { offsetInCU: 0x9B67, offset: 0x9B67, size: 0x8, addend: 0x0, symName: __ZNSt3__135__uninitialized_allocator_copy_implB8ue170006INS_9allocatorIiEEKiiiLPv0EEEPT2_RT_PT0_SA_S6_, symObjAddr: 0x1984, symBinAddr: 0x100002184, symSize: 0x38 }
  - { offsetInCU: 0x9BEA, offset: 0x9BEA, size: 0x8, addend: 0x0, symName: __ZNSt3__113__unwrap_iterB8ue170006IPiNS_18__unwrap_iter_implIS1_Lb1EEELi0EEEDTclsrT0_8__unwrapclsr3stdE7declvalIT_EEEES5_, symObjAddr: 0x19BC, symBinAddr: 0x1000021BC, symSize: 0x24 }
  - { offsetInCU: 0x9C2E, offset: 0x9C2E, size: 0x8, addend: 0x0, symName: __ZNSt3__113__rewrap_iterB8ue170006IPiS1_NS_18__unwrap_iter_implIS1_Lb1EEEEET_S4_T0_, symObjAddr: 0x19E0, symBinAddr: 0x1000021E0, symSize: 0x3C }
  - { offsetInCU: 0x9C82, offset: 0x9C82, size: 0x8, addend: 0x0, symName: __ZNSt3__19make_pairB8ue170006IPKiS2_EENS_4pairINS_18__unwrap_ref_decayIT_E4typeENS4_IT0_E4typeEEEOS5_OS8_, symObjAddr: 0x1A1C, symBinAddr: 0x10000221C, symSize: 0x38 }
  - { offsetInCU: 0x9CD2, offset: 0x9CD2, size: 0x8, addend: 0x0, symName: __ZNSt3__113__unwrap_iterB8ue170006IPKiNS_18__unwrap_iter_implIS2_Lb1EEELi0EEEDTclsrT0_8__unwrapclsr3stdE7declvalIT_EEEES6_, symObjAddr: 0x1A54, symBinAddr: 0x100002254, symSize: 0x24 }
  - { offsetInCU: 0x9E3D, offset: 0x9E3D, size: 0x8, addend: 0x0, symName: __ZNSt3__112__to_addressB8ue170006IKiEEPT_S3_, symObjAddr: 0x1B0C, symBinAddr: 0x10000230C, symSize: 0x14 }
  - { offsetInCU: 0x9E72, offset: 0x9E72, size: 0x8, addend: 0x0, symName: __ZNSt3__14copyB8ue170006IPKiPiEET0_T_S5_S4_, symObjAddr: 0x1B20, symBinAddr: 0x100002320, symSize: 0x40 }
  - { offsetInCU: 0x9ECC, offset: 0x9ECC, size: 0x8, addend: 0x0, symName: __ZNSt3__16__copyB8ue170006INS_17_ClassicAlgPolicyEPKiS3_PiEENS_4pairIT0_T2_EES6_T1_S7_, symObjAddr: 0x1B60, symBinAddr: 0x100002360, symSize: 0x44 }
  - { offsetInCU: 0x9F38, offset: 0x9F38, size: 0x8, addend: 0x0, symName: __ZNSt3__123__dispatch_copy_or_moveB8ue170006INS_17_ClassicAlgPolicyENS_11__copy_loopIS1_EENS_14__copy_trivialEPKiS6_PiEENS_4pairIT2_T4_EES9_T3_SA_, symObjAddr: 0x1BA4, symBinAddr: 0x1000023A4, symSize: 0x44 }
  - { offsetInCU: 0x9FB6, offset: 0x9FB6, size: 0x8, addend: 0x0, symName: __ZNSt3__121__unwrap_and_dispatchB8ue170006INS_10__overloadINS_11__copy_loopINS_17_ClassicAlgPolicyEEENS_14__copy_trivialEEEPKiS8_PiLi0EEENS_4pairIT0_T2_EESB_T1_SC_, symObjAddr: 0x1BE8, symBinAddr: 0x1000023E8, symSize: 0xB4 }
  - { offsetInCU: 0xA18C, offset: 0xA18C, size: 0x8, addend: 0x0, symName: __ZNSt3__19make_pairB8ue170006IPKiPiEENS_4pairINS_18__unwrap_ref_decayIT_E4typeENS5_IT0_E4typeEEEOS6_OS9_, symObjAddr: 0x1CE4, symBinAddr: 0x1000024E4, symSize: 0x38 }
  - { offsetInCU: 0xA1DC, offset: 0xA1DC, size: 0x8, addend: 0x0, symName: __ZNSt3__114__rewrap_rangeB8ue170006IPKiS2_EET_S3_T0_, symObjAddr: 0x1D1C, symBinAddr: 0x10000251C, symSize: 0x2C }
  - { offsetInCU: 0xA228, offset: 0xA228, size: 0x8, addend: 0x0, symName: __ZNSt3__119__copy_trivial_implB8ue170006IKiiEENS_4pairIPT_PT0_EES4_S4_S6_, symObjAddr: 0x1D48, symBinAddr: 0x100002548, symSize: 0x80 }
  - { offsetInCU: 0xA290, offset: 0xA290, size: 0x8, addend: 0x0, symName: __ZNSt3__119__constexpr_memmoveB8ue170006IiKiLi0EEEPT_S3_PT0_NS_15__element_countE, symObjAddr: 0x1DC8, symBinAddr: 0x1000025C8, symSize: 0x64 }
  - { offsetInCU: 0xA2FD, offset: 0xA2FD, size: 0x8, addend: 0x0, symName: __ZNSt3__19make_pairB8ue170006IRPKiPiEENS_4pairINS_18__unwrap_ref_decayIT_E4typeENS6_IT0_E4typeEEEOS7_OSA_, symObjAddr: 0x1E2C, symBinAddr: 0x10000262C, symSize: 0x38 }
  - { offsetInCU: 0xA34D, offset: 0xA34D, size: 0x8, addend: 0x0, symName: __ZNSt3__113__rewrap_iterB8ue170006IPKiS2_NS_18__unwrap_iter_implIS2_Lb1EEEEET_S5_T0_, symObjAddr: 0x1F44, symBinAddr: 0x100002744, symSize: 0x3C }
  - { offsetInCU: 0xA3F5, offset: 0xA3F5, size: 0x8, addend: 0x0, symName: __ZNSt3__119__libcpp_deallocateB8ue170006EPvmm, symObjAddr: 0x238C, symBinAddr: 0x100002B8C, symSize: 0x60 }
  - { offsetInCU: 0xA45C, offset: 0xA45C, size: 0x8, addend: 0x0, symName: __ZNSt3__127__do_deallocate_handle_sizeB8ue170006IJSt11align_val_tEEEvPvmDpT_, symObjAddr: 0x23EC, symBinAddr: 0x100002BEC, symSize: 0x30 }
  - { offsetInCU: 0xA4B0, offset: 0xA4B0, size: 0x8, addend: 0x0, symName: __ZNSt3__127__do_deallocate_handle_sizeB8ue170006IJEEEvPvmDpT_, symObjAddr: 0x241C, symBinAddr: 0x100002C1C, symSize: 0x28 }
  - { offsetInCU: 0xA4EF, offset: 0xA4EF, size: 0x8, addend: 0x0, symName: __ZNSt3__124__libcpp_operator_deleteB8ue170006IJPvSt11align_val_tEEEvDpT_, symObjAddr: 0x2444, symBinAddr: 0x100002C44, symSize: 0x2C }
  - { offsetInCU: 0xA539, offset: 0xA539, size: 0x8, addend: 0x0, symName: __ZNSt3__124__libcpp_operator_deleteB8ue170006IJPvEEEvDpT_, symObjAddr: 0x2470, symBinAddr: 0x100002C70, symSize: 0x24 }
  - { offsetInCU: 0xA56F, offset: 0xA56F, size: 0x8, addend: 0x0, symName: __ZNSt3__19use_facetB8ue170006INS_5ctypeIcEEEERKT_RKNS_6localeE, symObjAddr: 0x27E0, symBinAddr: 0x100002FE0, symSize: 0x2C }
  - { offsetInCU: 0xAA3B, offset: 0xAA3B, size: 0x8, addend: 0x0, symName: __ZNSt3__116__pad_and_outputB8ue170006IcNS_11char_traitsIcEEEENS_19ostreambuf_iteratorIT_T0_EES6_PKS4_S8_S8_RNS_8ios_baseES4_, symObjAddr: 0x2A80, symBinAddr: 0x100003280, symSize: 0x240 }
  - { offsetInCU: 0xAB0B, offset: 0xAB0B, size: 0x8, addend: 0x0, symName: __ZNSt3__112__to_addressB8ue170006IcEEPT_S2_, symObjAddr: 0x2FE8, symBinAddr: 0x1000037E8, symSize: 0x14 }
  - { offsetInCU: 0xAB73, offset: 0xAB73, size: 0x8, addend: 0x0, symName: __ZNSt3__118__constexpr_strlenB8ue170006EPKc, symObjAddr: 0x3250, symBinAddr: 0x100003A50, symSize: 0x24 }
  - { offsetInCU: 0xAB9F, offset: 0xAB9F, size: 0x8, addend: 0x0, symName: __ZNSt3__112__to_addressB8ue170006INS_8functionIFvvEEEEEPT_S5_, symObjAddr: 0x3720, symBinAddr: 0x100003F20, symSize: 0x14 }
  - { offsetInCU: 0xABD4, offset: 0xABD4, size: 0x8, addend: 0x0, symName: __ZNSt3__13maxB8ue170006ImEERKT_S3_S3_, symObjAddr: 0x3FCC, symBinAddr: 0x1000047CC, symSize: 0x2C }
  - { offsetInCU: 0xAC17, offset: 0xAC17, size: 0x8, addend: 0x0, symName: __ZNSt3__13maxB8ue170006ImNS_6__lessIvvEEEERKT_S5_S5_T0_, symObjAddr: 0x4090, symBinAddr: 0x100004890, symSize: 0x54 }
  - { offsetInCU: 0xAC71, offset: 0xAC71, size: 0x8, addend: 0x0, symName: __ZNSt3__119__allocate_at_leastB8ue170006INS_9allocatorINS_8functionIFvvEEEEEEENS_19__allocation_resultINS_16allocator_traitsIT_E7pointerEEERS8_m, symObjAddr: 0x41F4, symBinAddr: 0x1000049F4, symSize: 0x40 }
  - { offsetInCU: 0xACB3, offset: 0xACB3, size: 0x8, addend: 0x0, symName: __ZNSt3__142__uninitialized_allocator_move_if_noexceptB8ue170006INS_9allocatorINS_8functionIFvvEEEEENS_16reverse_iteratorIPS4_EES8_S8_EET2_RT_T0_T1_S9_, symObjAddr: 0x43A8, symBinAddr: 0x100004BA8, symSize: 0x12C }
  - { offsetInCU: 0xAD54, offset: 0xAD54, size: 0x8, addend: 0x0, symName: __ZNSt3__14swapB8ue170006IPNS_8functionIFvvEEEEENS_9enable_ifIXaasr21is_move_constructibleIT_EE5valuesr18is_move_assignableIS6_EE5valueEvE4typeERS6_S9_, symObjAddr: 0x4520, symBinAddr: 0x100004D20, symSize: 0x3C }
  - { offsetInCU: 0xADA5, offset: 0xADA5, size: 0x8, addend: 0x0, symName: __ZNSt3__122__make_exception_guardB8ue170006INS_29_AllocatorDestroyRangeReverseINS_9allocatorINS_8functionIFvvEEEEENS_16reverse_iteratorIPS5_EEEEEENS_28__exception_guard_exceptionsIT_EESC_, symObjAddr: 0x4608, symBinAddr: 0x100004E08, symSize: 0x4C }
  - { offsetInCU: 0xADDB, offset: 0xADDB, size: 0x8, addend: 0x0, symName: __ZNSt3__1neB8ue170006IPNS_8functionIFvvEEES4_EEbRKNS_16reverse_iteratorIT_EERKNS5_IT0_EE, symObjAddr: 0x4698, symBinAddr: 0x100004E98, symSize: 0x48 }
  - { offsetInCU: 0xAE27, offset: 0xAE27, size: 0x8, addend: 0x0, symName: __ZNSt3__112__to_addressB8ue170006INS_16reverse_iteratorIPNS_8functionIFvvEEEEEvEEu7__decayIDTclsr19__to_address_helperIT_EE6__callclsr3stdE7declvalIRKS7_EEEEES9_, symObjAddr: 0x46E0, symBinAddr: 0x100004EE0, symSize: 0x24 }
  - { offsetInCU: 0xAE87, offset: 0xAE87, size: 0x8, addend: 0x0, symName: __ZNSt3__119__allocator_destroyB8ue170006INS_9allocatorINS_8functionIFvvEEEEENS_16reverse_iteratorINS6_IPS4_EEEES9_EEvRT_T0_T1_, symObjAddr: 0x4990, symBinAddr: 0x100005190, symSize: 0x70 }
  - { offsetInCU: 0xAEED, offset: 0xAEED, size: 0x8, addend: 0x0, symName: __ZNSt3__1neB8ue170006INS_16reverse_iteratorIPNS_8functionIFvvEEEEES6_EEbRKNS1_IT_EERKNS1_IT0_EE, symObjAddr: 0x4A3C, symBinAddr: 0x10000523C, symSize: 0x60 }
  - { offsetInCU: 0xAF39, offset: 0xAF39, size: 0x8, addend: 0x0, symName: __ZNSt3__112__to_addressB8ue170006INS_16reverse_iteratorINS1_IPNS_8functionIFvvEEEEEEEvEEu7__decayIDTclsr19__to_address_helperIT_EE6__callclsr3stdE7declvalIRKS8_EEEEESA_, symObjAddr: 0x4A9C, symBinAddr: 0x10000529C, symSize: 0x24 }
  - { offsetInCU: 0xB0FC, offset: 0xB0FC, size: 0x8, addend: 0x0, symName: '__ZNSt3__116forward_as_tupleB8ue170006IJZ4mainE3$_1EEENS_5tupleIJDpOT_EEES5_', symObjAddr: 0x5540, symBinAddr: 0x100005D40, symSize: 0x2C }
  - { offsetInCU: 0xB136, offset: 0xB136, size: 0x8, addend: 0x0, symName: '__ZNSt3__116forward_as_tupleB8ue170006IJNS_9allocatorIZ4mainE3$_1EEEEENS_5tupleIJDpOT_EEES7_', symObjAddr: 0x556C, symBinAddr: 0x100005D6C, symSize: 0x2C }
  - { offsetInCU: 0xB1B5, offset: 0xB1B5, size: 0x8, addend: 0x0, symName: '__ZNSt3__13getB8ue170006ILm0EJOZ4mainE3$_1EEERNS_13tuple_elementIXT_ENS_5tupleIJDpT0_EEEE4typeERS7_', symObjAddr: 0x5884, symBinAddr: 0x100006084, symSize: 0x24 }
  - { offsetInCU: 0xB1F8, offset: 0xB1F8, size: 0x8, addend: 0x0, symName: '__ZNSt3__13getB8ue170006ILm0EJONS_9allocatorIZ4mainE3$_1EEEEERNS_13tuple_elementIXT_ENS_5tupleIJDpT0_EEEE4typeERS9_', symObjAddr: 0x58C0, symBinAddr: 0x1000060C0, symSize: 0x24 }
  - { offsetInCU: 0xB720, offset: 0xB720, size: 0x8, addend: 0x0, symName: '__ZNSt3__116forward_as_tupleB8ue170006IJRKZ4mainE3$_1EEENS_5tupleIJDpOT_EEES7_', symObjAddr: 0x5E54, symBinAddr: 0x100006654, symSize: 0x2C }
  - { offsetInCU: 0xB76F, offset: 0xB76F, size: 0x8, addend: 0x0, symName: '__ZNSt3__13getB8ue170006ILm0EJRKZ4mainE3$_1EEERNS_13tuple_elementIXT_ENS_5tupleIJDpT0_EEEE4typeERS8_', symObjAddr: 0x6044, symBinAddr: 0x100006844, symSize: 0x24 }
  - { offsetInCU: 0xB7B2, offset: 0xB7B2, size: 0x8, addend: 0x0, symName: '__ZNSt3__116forward_as_tupleB8ue170006IJRKNS_9allocatorIZ4mainE3$_1EEEEENS_5tupleIJDpOT_EEES9_', symObjAddr: 0x63A0, symBinAddr: 0x100006BA0, symSize: 0x2C }
  - { offsetInCU: 0xB801, offset: 0xB801, size: 0x8, addend: 0x0, symName: '__ZNSt3__13getB8ue170006ILm0EJRKNS_9allocatorIZ4mainE3$_1EEEEERNS_13tuple_elementIXT_ENS_5tupleIJDpT0_EEEE4typeERSA_', symObjAddr: 0x6584, symBinAddr: 0x100006D84, symSize: 0x24 }
  - { offsetInCU: 0xB877, offset: 0xB877, size: 0x8, addend: 0x0, symName: '__ZNSt3__18__invokeB8ue170006IRZ4mainE3$_1JEEEDTclclsr3stdE7declvalIT_EEspclsr3stdE7declvalIT0_EEEEOS3_DpOS4_', symObjAddr: 0x6640, symBinAddr: 0x100006E40, symSize: 0x24 }
  - { offsetInCU: 0xB8B0, offset: 0xB8B0, size: 0x8, addend: 0x0, symName: __ZNSt3__125__throw_bad_function_callB8ue170006Ev, symObjAddr: 0x6A94, symBinAddr: 0x100007294, symSize: 0x38 }
  - { offsetInCU: 0xBF0E, offset: 0xBF0E, size: 0x8, addend: 0x0, symName: __ZSt28__throw_bad_array_new_lengthB8ue170006v, symObjAddr: 0x1588, symBinAddr: 0x100001D88, symSize: 0x34 }
  - { offsetInCU: 0xC78E, offset: 0xC78E, size: 0x8, addend: 0x0, symName: __ZNSt3__16vectorINS_8functionIFvvEEENS_9allocatorIS3_EEE26__swap_out_circular_bufferERNS_14__split_bufferIS3_RS5_EE, symObjAddr: 0x3E14, symBinAddr: 0x100004614, symSize: 0x110 }
  - { offsetInCU: 0xC82D, offset: 0xC82D, size: 0x8, addend: 0x0, symName: _main, symObjAddr: 0x0, symBinAddr: 0x100000800, symSize: 0x4DC }
  - { offsetInCU: 0xF000, offset: 0xF000, size: 0x8, addend: 0x0, symName: __ZNSt3__16vectorIiNS_9allocatorIiEEEC1B8ue170006ESt16initializer_listIiE, symObjAddr: 0x4DC, symBinAddr: 0x100000CDC, symSize: 0x3C }
  - { offsetInCU: 0xF03B, offset: 0xF03B, size: 0x8, addend: 0x0, symName: __ZNSt3__16vectorIiNS_9allocatorIiEEEC1Em, symObjAddr: 0x518, symBinAddr: 0x100000D18, symSize: 0x34 }
  - { offsetInCU: 0xF076, offset: 0xF076, size: 0x8, addend: 0x0, symName: __ZNSt3__16vectorIiNS_9allocatorIiEEE5beginB8ue170006Ev, symObjAddr: 0x5D8, symBinAddr: 0x100000DD8, symSize: 0x30 }
  - { offsetInCU: 0xF09E, offset: 0xF09E, size: 0x8, addend: 0x0, symName: __ZNSt3__16vectorIiNS_9allocatorIiEEE3endB8ue170006Ev, symObjAddr: 0x608, symBinAddr: 0x100000E08, symSize: 0x30 }
  - { offsetInCU: 0xF0C6, offset: 0xF0C6, size: 0x8, addend: 0x0, symName: __ZNKSt3__111__wrap_iterIPiEdeB8ue170006Ev, symObjAddr: 0x66C, symBinAddr: 0x100000E6C, symSize: 0x18 }
  - { offsetInCU: 0xF0EC, offset: 0xF0EC, size: 0x8, addend: 0x0, symName: __ZNSt3__113basic_ostreamIcNS_11char_traitsIcEEElsB8ue170006EPFRS3_S4_E, symObjAddr: 0x684, symBinAddr: 0x100000E84, symSize: 0x2C }
  - { offsetInCU: 0xF120, offset: 0xF120, size: 0x8, addend: 0x0, symName: __ZNSt3__111__wrap_iterIPiEppB8ue170006Ev, symObjAddr: 0x708, symBinAddr: 0x100000F08, symSize: 0x20 }
  - { offsetInCU: 0xF146, offset: 0xF146, size: 0x8, addend: 0x0, symName: __ZNSt3__16vectorINS_8functionIFvvEEENS_9allocatorIS3_EEEC1B8ue170006Ev, symObjAddr: 0x770, symBinAddr: 0x100000F70, symSize: 0x2C }
  - { offsetInCU: 0xF170, offset: 0xF170, size: 0x8, addend: 0x0, symName: __ZNSt3__16vectorINS_8functionIFvvEEENS_9allocatorIS3_EEE9push_backB8ue170006EOS3_, symObjAddr: 0x79C, symBinAddr: 0x100000F9C, symSize: 0x6C }
  - { offsetInCU: 0xF1A7, offset: 0xF1A7, size: 0x8, addend: 0x0, symName: '__ZNSt3__18functionIFvvEEC1IZ4mainE3$_1vEET_', symObjAddr: 0x808, symBinAddr: 0x100001008, symSize: 0x3C }
  - { offsetInCU: 0xF1EC, offset: 0xF1EC, size: 0x8, addend: 0x0, symName: __ZNSt3__18functionIFvvEED1Ev, symObjAddr: 0x844, symBinAddr: 0x100001044, symSize: 0x2C }
  - { offsetInCU: 0xF218, offset: 0xF218, size: 0x8, addend: 0x0, symName: __ZNSt3__16vectorINS_8functionIFvvEEENS_9allocatorIS3_EEE5beginB8ue170006Ev, symObjAddr: 0x870, symBinAddr: 0x100001070, symSize: 0x30 }
  - { offsetInCU: 0xF240, offset: 0xF240, size: 0x8, addend: 0x0, symName: __ZNSt3__16vectorINS_8functionIFvvEEENS_9allocatorIS3_EEE3endB8ue170006Ev, symObjAddr: 0x8A0, symBinAddr: 0x1000010A0, symSize: 0x30 }
  - { offsetInCU: 0xF268, offset: 0xF268, size: 0x8, addend: 0x0, symName: __ZNKSt3__111__wrap_iterIPNS_8functionIFvvEEEEdeB8ue170006Ev, symObjAddr: 0x904, symBinAddr: 0x100001104, symSize: 0x18 }
  - { offsetInCU: 0xF28E, offset: 0xF28E, size: 0x8, addend: 0x0, symName: __ZNSt3__18functionIFvvEEC1ERKS2_, symObjAddr: 0x91C, symBinAddr: 0x10000111C, symSize: 0x34 }
  - { offsetInCU: 0xF2C9, offset: 0xF2C9, size: 0x8, addend: 0x0, symName: __ZNKSt3__18functionIFvvEEclEv, symObjAddr: 0x950, symBinAddr: 0x100001150, symSize: 0x24 }
  - { offsetInCU: 0xF2F1, offset: 0xF2F1, size: 0x8, addend: 0x0, symName: __ZNSt3__111__wrap_iterIPNS_8functionIFvvEEEEppB8ue170006Ev, symObjAddr: 0x974, symBinAddr: 0x100001174, symSize: 0x20 }
  - { offsetInCU: 0xF317, offset: 0xF317, size: 0x8, addend: 0x0, symName: __ZNSt3__16vectorINS_8functionIFvvEEENS_9allocatorIS3_EEED1B8ue170006Ev, symObjAddr: 0xB28, symBinAddr: 0x100001328, symSize: 0x2C }
  - { offsetInCU: 0xF341, offset: 0xF341, size: 0x8, addend: 0x0, symName: __ZNSt3__16vectorIiNS_9allocatorIiEEED1B8ue170006Ev, symObjAddr: 0xB54, symBinAddr: 0x100001354, symSize: 0x2C }
  - { offsetInCU: 0xF36B, offset: 0xF36B, size: 0x8, addend: 0x0, symName: __ZNKSt3__111__wrap_iterIPiE4baseB8ue170006Ev, symObjAddr: 0xBC8, symBinAddr: 0x1000013C8, symSize: 0x18 }
  - { offsetInCU: 0xF391, offset: 0xF391, size: 0x8, addend: 0x0, symName: __ZNKSt3__111__wrap_iterIPNS_8functionIFvvEEEE4baseB8ue170006Ev, symObjAddr: 0xC28, symBinAddr: 0x100001428, symSize: 0x18 }
  - { offsetInCU: 0xF3B7, offset: 0xF3B7, size: 0x8, addend: 0x0, symName: __ZNSt3__16vectorIiNS_9allocatorIiEEEC2B8ue170006ESt16initializer_listIiE, symObjAddr: 0xC40, symBinAddr: 0x100001440, symSize: 0x120 }
  - { offsetInCU: 0xF413, offset: 0xF413, size: 0x8, addend: 0x0, symName: __ZNSt3__117__compressed_pairIPiNS_9allocatorIiEEEC1B8ue170006IDnNS_18__default_init_tagEEEOT_OT0_, symObjAddr: 0xD60, symBinAddr: 0x100001560, symSize: 0x3C }
  - { offsetInCU: 0xF46B, offset: 0xF46B, size: 0x8, addend: 0x0, symName: __ZNSt3__16vectorIiNS_9allocatorIiEEE16__destroy_vectorC1B8ue170006ERS3_, symObjAddr: 0xDDC, symBinAddr: 0x1000015DC, symSize: 0x34 }
  - { offsetInCU: 0xF4A4, offset: 0xF4A4, size: 0x8, addend: 0x0, symName: __ZNKSt16initializer_listIiE4sizeB8ue170006Ev, symObjAddr: 0xE10, symBinAddr: 0x100001610, symSize: 0x18 }
  - { offsetInCU: 0xF4CA, offset: 0xF4CA, size: 0x8, addend: 0x0, symName: __ZNSt3__16vectorIiNS_9allocatorIiEEE11__vallocateB8ue170006Em, symObjAddr: 0xE28, symBinAddr: 0x100001628, symSize: 0xAC }
  - { offsetInCU: 0xF50E, offset: 0xF50E, size: 0x8, addend: 0x0, symName: __ZNSt3__16vectorIiNS_9allocatorIiEEE18__construct_at_endIPKiS6_EEvT_T0_m, symObjAddr: 0xED4, symBinAddr: 0x1000016D4, symSize: 0x8C }
  - { offsetInCU: 0xF584, offset: 0xF584, size: 0x8, addend: 0x0, symName: __ZNKSt16initializer_listIiE5beginB8ue170006Ev, symObjAddr: 0xF60, symBinAddr: 0x100001760, symSize: 0x18 }
  - { offsetInCU: 0xF5AA, offset: 0xF5AA, size: 0x8, addend: 0x0, symName: __ZNKSt16initializer_listIiE3endB8ue170006Ev, symObjAddr: 0xF78, symBinAddr: 0x100001778, symSize: 0x20 }
  - { offsetInCU: 0xF5D0, offset: 0xF5D0, size: 0x8, addend: 0x0, symName: __ZNSt3__128__exception_guard_exceptionsINS_6vectorIiNS_9allocatorIiEEE16__destroy_vectorEE10__completeB8ue170006Ev, symObjAddr: 0xF98, symBinAddr: 0x100001798, symSize: 0x1C }
  - { offsetInCU: 0xF5F6, offset: 0xF5F6, size: 0x8, addend: 0x0, symName: __ZNSt3__128__exception_guard_exceptionsINS_6vectorIiNS_9allocatorIiEEE16__destroy_vectorEED1B8ue170006Ev, symObjAddr: 0xFB4, symBinAddr: 0x1000017B4, symSize: 0x2C }
  - { offsetInCU: 0xF620, offset: 0xF620, size: 0x8, addend: 0x0, symName: __ZNSt3__117__compressed_pairIPiNS_9allocatorIiEEEC2B8ue170006IDnNS_18__default_init_tagEEEOT_OT0_, symObjAddr: 0xFE0, symBinAddr: 0x1000017E0, symSize: 0x40 }
  - { offsetInCU: 0xF678, offset: 0xF678, size: 0x8, addend: 0x0, symName: __ZNSt3__122__compressed_pair_elemIPiLi0ELb0EEC2B8ue170006IDnvEEOT_, symObjAddr: 0x1020, symBinAddr: 0x100001820, symSize: 0x1C }
  - { offsetInCU: 0xF6BA, offset: 0xF6BA, size: 0x8, addend: 0x0, symName: __ZNSt3__122__compressed_pair_elemINS_9allocatorIiEELi1ELb1EEC2B8ue170006ENS_18__default_init_tagE, symObjAddr: 0x103C, symBinAddr: 0x10000183C, symSize: 0x2C }
  - { offsetInCU: 0xF6EE, offset: 0xF6EE, size: 0x8, addend: 0x0, symName: __ZNSt3__19allocatorIiEC2B8ue170006Ev, symObjAddr: 0x1068, symBinAddr: 0x100001868, symSize: 0x2C }
  - { offsetInCU: 0xF718, offset: 0xF718, size: 0x8, addend: 0x0, symName: __ZNSt3__116__non_trivial_ifILb1ENS_9allocatorIiEEEC2B8ue170006Ev, symObjAddr: 0x1094, symBinAddr: 0x100001894, symSize: 0x14 }
  - { offsetInCU: 0xF742, offset: 0xF742, size: 0x8, addend: 0x0, symName: __ZNSt3__128__exception_guard_exceptionsINS_6vectorIiNS_9allocatorIiEEE16__destroy_vectorEEC1B8ue170006ES5_, symObjAddr: 0x10A8, symBinAddr: 0x1000018A8, symSize: 0x34 }
  - { offsetInCU: 0xF77A, offset: 0xF77A, size: 0x8, addend: 0x0, symName: __ZNSt3__128__exception_guard_exceptionsINS_6vectorIiNS_9allocatorIiEEE16__destroy_vectorEEC2B8ue170006ES5_, symObjAddr: 0x10DC, symBinAddr: 0x1000018DC, symSize: 0x24 }
  - { offsetInCU: 0xF7B2, offset: 0xF7B2, size: 0x8, addend: 0x0, symName: __ZNSt3__16vectorIiNS_9allocatorIiEEE16__destroy_vectorC2B8ue170006ERS3_, symObjAddr: 0x1100, symBinAddr: 0x100001900, symSize: 0x20 }
  - { offsetInCU: 0xF7EB, offset: 0xF7EB, size: 0x8, addend: 0x0, symName: __ZNKSt3__16vectorIiNS_9allocatorIiEEE8max_sizeEv, symObjAddr: 0x1120, symBinAddr: 0x100001920, symSize: 0x60 }
  - { offsetInCU: 0xF813, offset: 0xF813, size: 0x8, addend: 0x0, symName: __ZNKSt3__16vectorIiNS_9allocatorIiEEE20__throw_length_errorB8ue170006Ev, symObjAddr: 0x1180, symBinAddr: 0x100001980, symSize: 0x1C }
  - { offsetInCU: 0xF839, offset: 0xF839, size: 0x8, addend: 0x0, symName: __ZNSt3__16vectorIiNS_9allocatorIiEEE7__allocB8ue170006Ev, symObjAddr: 0x11DC, symBinAddr: 0x1000019DC, symSize: 0x28 }
  - { offsetInCU: 0xF85F, offset: 0xF85F, size: 0x8, addend: 0x0, symName: __ZNSt3__16vectorIiNS_9allocatorIiEEE9__end_capB8ue170006Ev, symObjAddr: 0x1204, symBinAddr: 0x100001A04, symSize: 0x28 }
  - { offsetInCU: 0xF885, offset: 0xF885, size: 0x8, addend: 0x0, symName: __ZNKSt3__16vectorIiNS_9allocatorIiEEE14__annotate_newB8ue170006Em, symObjAddr: 0x122C, symBinAddr: 0x100001A2C, symSize: 0xAC }
  - { offsetInCU: 0xF8C5, offset: 0xF8C5, size: 0x8, addend: 0x0, symName: __ZNSt3__116allocator_traitsINS_9allocatorIiEEE8max_sizeB8ue170006IS2_vEEmRKS2_, symObjAddr: 0x1304, symBinAddr: 0x100001B04, symSize: 0x24 }
  - { offsetInCU: 0xF8F3, offset: 0xF8F3, size: 0x8, addend: 0x0, symName: __ZNKSt3__16vectorIiNS_9allocatorIiEEE7__allocB8ue170006Ev, symObjAddr: 0x1328, symBinAddr: 0x100001B28, symSize: 0x28 }
  - { offsetInCU: 0xF919, offset: 0xF919, size: 0x8, addend: 0x0, symName: __ZNSt3__114numeric_limitsIlE3maxB8ue170006Ev, symObjAddr: 0x1350, symBinAddr: 0x100001B50, symSize: 0x14 }
  - { offsetInCU: 0xF93E, offset: 0xF93E, size: 0x8, addend: 0x0, symName: __ZNKSt3__16__lessIvvEclB8ue170006ImmEEbRKT_RKT0_, symObjAddr: 0x13C4, symBinAddr: 0x100001BC4, symSize: 0x34 }
  - { offsetInCU: 0xF992, offset: 0xF992, size: 0x8, addend: 0x0, symName: __ZNKSt3__19allocatorIiE8max_sizeB8ue170006Ev, symObjAddr: 0x13F8, symBinAddr: 0x100001BF8, symSize: 0x14 }
  - { offsetInCU: 0xF9B8, offset: 0xF9B8, size: 0x8, addend: 0x0, symName: __ZNKSt3__117__compressed_pairIPiNS_9allocatorIiEEE6secondB8ue170006Ev, symObjAddr: 0x140C, symBinAddr: 0x100001C0C, symSize: 0x24 }
  - { offsetInCU: 0xF9DE, offset: 0xF9DE, size: 0x8, addend: 0x0, symName: __ZNKSt3__122__compressed_pair_elemINS_9allocatorIiEELi1ELb1EE5__getB8ue170006Ev, symObjAddr: 0x1430, symBinAddr: 0x100001C30, symSize: 0x14 }
  - { offsetInCU: 0xFA04, offset: 0xFA04, size: 0x8, addend: 0x0, symName: __ZNSt3__123__libcpp_numeric_limitsIlLb1EE3maxB8ue170006Ev, symObjAddr: 0x1444, symBinAddr: 0x100001C44, symSize: 0x8 }
  - { offsetInCU: 0xFA18, offset: 0xFA18, size: 0x8, addend: 0x0, symName: __ZNSt12length_errorC1B8ue170006EPKc, symObjAddr: 0x14B0, symBinAddr: 0x100001CB0, symSize: 0x34 }
  - { offsetInCU: 0xFA50, offset: 0xFA50, size: 0x8, addend: 0x0, symName: __ZNSt12length_errorC2B8ue170006EPKc, symObjAddr: 0x14E4, symBinAddr: 0x100001CE4, symSize: 0x4C }
  - { offsetInCU: 0xFA88, offset: 0xFA88, size: 0x8, addend: 0x0, symName: __ZNSt3__19allocatorIiE8allocateB8ue170006Em, symObjAddr: 0x1530, symBinAddr: 0x100001D30, symSize: 0x58 }
  - { offsetInCU: 0xFABC, offset: 0xFABC, size: 0x8, addend: 0x0, symName: __ZNSt3__117__compressed_pairIPiNS_9allocatorIiEEE6secondB8ue170006Ev, symObjAddr: 0x168C, symBinAddr: 0x100001E8C, symSize: 0x24 }
  - { offsetInCU: 0xFAE2, offset: 0xFAE2, size: 0x8, addend: 0x0, symName: __ZNSt3__122__compressed_pair_elemINS_9allocatorIiEELi1ELb1EE5__getB8ue170006Ev, symObjAddr: 0x16B0, symBinAddr: 0x100001EB0, symSize: 0x14 }
  - { offsetInCU: 0xFB08, offset: 0xFB08, size: 0x8, addend: 0x0, symName: __ZNSt3__117__compressed_pairIPiNS_9allocatorIiEEE5firstB8ue170006Ev, symObjAddr: 0x16C4, symBinAddr: 0x100001EC4, symSize: 0x24 }
  - { offsetInCU: 0xFB2E, offset: 0xFB2E, size: 0x8, addend: 0x0, symName: __ZNSt3__122__compressed_pair_elemIPiLi0ELb0EE5__getB8ue170006Ev, symObjAddr: 0x16E8, symBinAddr: 0x100001EE8, symSize: 0x14 }
  - { offsetInCU: 0xFB54, offset: 0xFB54, size: 0x8, addend: 0x0, symName: __ZNKSt3__16vectorIiNS_9allocatorIiEEE31__annotate_contiguous_containerB8ue170006EPKvS5_S5_S5_, symObjAddr: 0x16FC, symBinAddr: 0x100001EFC, symSize: 0x20 }
  - { offsetInCU: 0xFBAA, offset: 0xFBAA, size: 0x8, addend: 0x0, symName: __ZNKSt3__16vectorIiNS_9allocatorIiEEE4dataB8ue170006Ev, symObjAddr: 0x171C, symBinAddr: 0x100001F1C, symSize: 0x28 }
  - { offsetInCU: 0xFBD0, offset: 0xFBD0, size: 0x8, addend: 0x0, symName: __ZNKSt3__16vectorIiNS_9allocatorIiEEE8capacityB8ue170006Ev, symObjAddr: 0x1744, symBinAddr: 0x100001F44, symSize: 0x40 }
  - { offsetInCU: 0xFBF6, offset: 0xFBF6, size: 0x8, addend: 0x0, symName: __ZNKSt3__16vectorIiNS_9allocatorIiEEE9__end_capB8ue170006Ev, symObjAddr: 0x1798, symBinAddr: 0x100001F98, symSize: 0x28 }
  - { offsetInCU: 0xFC1C, offset: 0xFC1C, size: 0x8, addend: 0x0, symName: __ZNKSt3__117__compressed_pairIPiNS_9allocatorIiEEE5firstB8ue170006Ev, symObjAddr: 0x17C0, symBinAddr: 0x100001FC0, symSize: 0x24 }
  - { offsetInCU: 0xFC42, offset: 0xFC42, size: 0x8, addend: 0x0, symName: __ZNKSt3__122__compressed_pair_elemIPiLi0ELb0EE5__getB8ue170006Ev, symObjAddr: 0x17E4, symBinAddr: 0x100001FE4, symSize: 0x14 }
  - { offsetInCU: 0xFC84, offset: 0xFC84, size: 0x8, addend: 0x0, symName: __ZNSt3__16vectorIiNS_9allocatorIiEEE21_ConstructTransactionC1B8ue170006ERS3_m, symObjAddr: 0x17F8, symBinAddr: 0x100001FF8, symSize: 0x3C }
  - { offsetInCU: 0xFCCC, offset: 0xFCCC, size: 0x8, addend: 0x0, symName: __ZNSt3__16vectorIiNS_9allocatorIiEEE21_ConstructTransactionD1B8ue170006Ev, symObjAddr: 0x18B4, symBinAddr: 0x1000020B4, symSize: 0x2C }
  - { offsetInCU: 0xFCF6, offset: 0xFCF6, size: 0x8, addend: 0x0, symName: __ZNSt3__16vectorIiNS_9allocatorIiEEE21_ConstructTransactionC2B8ue170006ERS3_m, symObjAddr: 0x18E0, symBinAddr: 0x1000020E0, symSize: 0x44 }
  - { offsetInCU: 0xFD61, offset: 0xFD61, size: 0x8, addend: 0x0, symName: __ZNSt3__14pairIPKiS2_EC1B8ue170006IS2_S2_LPv0EEEOT_OT0_, symObjAddr: 0x1A78, symBinAddr: 0x100002278, symSize: 0x3C }
  - { offsetInCU: 0xFDBF, offset: 0xFDBF, size: 0x8, addend: 0x0, symName: __ZNSt3__14pairIPKiS2_EC2B8ue170006IS2_S2_LPv0EEEOT_OT0_, symObjAddr: 0x1AB4, symBinAddr: 0x1000022B4, symSize: 0x34 }
  - { offsetInCU: 0xFE1D, offset: 0xFE1D, size: 0x8, addend: 0x0, symName: __ZNSt3__118__unwrap_iter_implIPKiLb1EE8__unwrapB8ue170006ES2_, symObjAddr: 0x1AE8, symBinAddr: 0x1000022E8, symSize: 0x24 }
  - { offsetInCU: 0xFE68, offset: 0xFE68, size: 0x8, addend: 0x0, symName: __ZNKSt3__114__copy_trivialclB8ue170006IKiiLi0EEENS_4pairIPT_PT0_EES5_S5_S7_, symObjAddr: 0x1C9C, symBinAddr: 0x10000249C, symSize: 0x48 }
  - { offsetInCU: 0xFEDC, offset: 0xFEDC, size: 0x8, addend: 0x0, symName: __ZNSt3__14pairIPKiPiEC1B8ue170006IRS2_S3_LPv0EEEOT_OT0_, symObjAddr: 0x1E64, symBinAddr: 0x100002664, symSize: 0x3C }
  - { offsetInCU: 0xFF3A, offset: 0xFF3A, size: 0x8, addend: 0x0, symName: __ZNSt3__14pairIPKiPiEC2B8ue170006IRS2_S3_LPv0EEEOT_OT0_, symObjAddr: 0x1EA0, symBinAddr: 0x1000026A0, symSize: 0x34 }
  - { offsetInCU: 0xFF98, offset: 0xFF98, size: 0x8, addend: 0x0, symName: __ZNSt3__14pairIPKiPiEC1B8ue170006IS2_S3_LPv0EEEOT_OT0_, symObjAddr: 0x1ED4, symBinAddr: 0x1000026D4, symSize: 0x3C }
  - { offsetInCU: 0xFFF6, offset: 0xFFF6, size: 0x8, addend: 0x0, symName: __ZNSt3__14pairIPKiPiEC2B8ue170006IS2_S3_LPv0EEEOT_OT0_, symObjAddr: 0x1F10, symBinAddr: 0x100002710, symSize: 0x34 }
  - { offsetInCU: 0x10054, offset: 0x10054, size: 0x8, addend: 0x0, symName: __ZNSt3__118__unwrap_iter_implIPKiLb1EE8__rewrapB8ue170006ES2_S2_, symObjAddr: 0x1F80, symBinAddr: 0x100002780, symSize: 0x50 }
  - { offsetInCU: 0x10085, offset: 0x10085, size: 0x8, addend: 0x0, symName: __ZNSt3__118__unwrap_iter_implIPiLb1EE8__unwrapB8ue170006ES1_, symObjAddr: 0x1FD0, symBinAddr: 0x1000027D0, symSize: 0x24 }
  - { offsetInCU: 0x100A8, offset: 0x100A8, size: 0x8, addend: 0x0, symName: __ZNSt3__118__unwrap_iter_implIPiLb1EE8__rewrapB8ue170006ES1_S1_, symObjAddr: 0x1FF4, symBinAddr: 0x1000027F4, symSize: 0x50 }
  - { offsetInCU: 0x100D9, offset: 0x100D9, size: 0x8, addend: 0x0, symName: __ZNSt3__16vectorIiNS_9allocatorIiEEE21_ConstructTransactionD2B8ue170006Ev, symObjAddr: 0x2044, symBinAddr: 0x100002844, symSize: 0x20 }
  - { offsetInCU: 0x10103, offset: 0x10103, size: 0x8, addend: 0x0, symName: __ZNSt3__128__exception_guard_exceptionsINS_6vectorIiNS_9allocatorIiEEE16__destroy_vectorEED2B8ue170006Ev, symObjAddr: 0x2064, symBinAddr: 0x100002864, symSize: 0x50 }
  - { offsetInCU: 0x1012D, offset: 0x1012D, size: 0x8, addend: 0x0, symName: __ZNSt3__16vectorIiNS_9allocatorIiEEE16__destroy_vectorclB8ue170006Ev, symObjAddr: 0x20B4, symBinAddr: 0x1000028B4, symSize: 0x90 }
  - { offsetInCU: 0x10153, offset: 0x10153, size: 0x8, addend: 0x0, symName: __ZNSt3__16vectorIiNS_9allocatorIiEEE7__clearB8ue170006Ev, symObjAddr: 0x2144, symBinAddr: 0x100002944, symSize: 0x28 }
  - { offsetInCU: 0x10179, offset: 0x10179, size: 0x8, addend: 0x0, symName: __ZNKSt3__16vectorIiNS_9allocatorIiEEE17__annotate_deleteB8ue170006Ev, symObjAddr: 0x216C, symBinAddr: 0x10000296C, symSize: 0xB8 }
  - { offsetInCU: 0x1019F, offset: 0x1019F, size: 0x8, addend: 0x0, symName: __ZNSt3__116allocator_traitsINS_9allocatorIiEEE10deallocateB8ue170006ERS2_Pim, symObjAddr: 0x2224, symBinAddr: 0x100002A24, symSize: 0x34 }
  - { offsetInCU: 0x101E1, offset: 0x101E1, size: 0x8, addend: 0x0, symName: __ZNSt3__16vectorIiNS_9allocatorIiEEE22__base_destruct_at_endB8ue170006EPi, symObjAddr: 0x2258, symBinAddr: 0x100002A58, symSize: 0x8C }
  - { offsetInCU: 0x10225, offset: 0x10225, size: 0x8, addend: 0x0, symName: __ZNSt3__116allocator_traitsINS_9allocatorIiEEE7destroyB8ue170006IivEEvRS2_PT_, symObjAddr: 0x22E4, symBinAddr: 0x100002AE4, symSize: 0x2C }
  - { offsetInCU: 0x10262, offset: 0x10262, size: 0x8, addend: 0x0, symName: __ZNSt3__19allocatorIiE7destroyB8ue170006EPi, symObjAddr: 0x2310, symBinAddr: 0x100002B10, symSize: 0x14 }
  - { offsetInCU: 0x10296, offset: 0x10296, size: 0x8, addend: 0x0, symName: __ZNKSt3__16vectorIiNS_9allocatorIiEEE4sizeB8ue170006Ev, symObjAddr: 0x2324, symBinAddr: 0x100002B24, symSize: 0x28 }
  - { offsetInCU: 0x102BC, offset: 0x102BC, size: 0x8, addend: 0x0, symName: __ZNSt3__19allocatorIiE10deallocateB8ue170006EPim, symObjAddr: 0x234C, symBinAddr: 0x100002B4C, symSize: 0x40 }
  - { offsetInCU: 0x102FE, offset: 0x102FE, size: 0x8, addend: 0x0, symName: __ZNSt3__16vectorIiNS_9allocatorIiEEED2B8ue170006Ev, symObjAddr: 0x2494, symBinAddr: 0x100002C94, symSize: 0x40 }
  - { offsetInCU: 0x10328, offset: 0x10328, size: 0x8, addend: 0x0, symName: __ZNSt3__16vectorIiNS_9allocatorIiEEEC2Em, symObjAddr: 0x24D4, symBinAddr: 0x100002CD4, symSize: 0xD4 }
  - { offsetInCU: 0x10378, offset: 0x10378, size: 0x8, addend: 0x0, symName: __ZNSt3__16vectorIiNS_9allocatorIiEEE18__construct_at_endEm, symObjAddr: 0x25A8, symBinAddr: 0x100002DA8, symSize: 0xC8 }
  - { offsetInCU: 0x103EB, offset: 0x103EB, size: 0x8, addend: 0x0, symName: __ZNSt3__116allocator_traitsINS_9allocatorIiEEE9constructB8ue170006IiJEvEEvRS2_PT_DpOT0_, symObjAddr: 0x2670, symBinAddr: 0x100002E70, symSize: 0x2C }
  - { offsetInCU: 0x1042D, offset: 0x1042D, size: 0x8, addend: 0x0, symName: __ZNSt3__19allocatorIiE9constructB8ue170006IiJEEEvPT_DpOT0_, symObjAddr: 0x269C, symBinAddr: 0x100002E9C, symSize: 0x1C }
  - { offsetInCU: 0x1046F, offset: 0x1046F, size: 0x8, addend: 0x0, symName: __ZNSt3__16vectorIiNS_9allocatorIiEEE11__make_iterB8ue170006EPi, symObjAddr: 0x26B8, symBinAddr: 0x100002EB8, symSize: 0x30 }
  - { offsetInCU: 0x104A4, offset: 0x104A4, size: 0x8, addend: 0x0, symName: __ZNSt3__111__wrap_iterIPiEC1B8ue170006ES1_, symObjAddr: 0x26E8, symBinAddr: 0x100002EE8, symSize: 0x34 }
  - { offsetInCU: 0x104DC, offset: 0x104DC, size: 0x8, addend: 0x0, symName: __ZNSt3__111__wrap_iterIPiEC2B8ue170006ES1_, symObjAddr: 0x271C, symBinAddr: 0x100002F1C, symSize: 0x20 }
  - { offsetInCU: 0x1051F, offset: 0x1051F, size: 0x8, addend: 0x0, symName: '__ZZ4mainENK3$_0clEi', symObjAddr: 0x273C, symBinAddr: 0x100002F3C, symSize: 0x20 }
  - { offsetInCU: 0x10557, offset: 0x10557, size: 0x8, addend: 0x0, symName: __ZNKSt3__19basic_iosIcNS_11char_traitsIcEEE5widenB8ue170006Ec, symObjAddr: 0x275C, symBinAddr: 0x100002F5C, symSize: 0x84 }
  - { offsetInCU: 0x105C7, offset: 0x105C7, size: 0x8, addend: 0x0, symName: __ZNKSt3__15ctypeIcE5widenB8ue170006Ec, symObjAddr: 0x280C, symBinAddr: 0x10000300C, symSize: 0x38 }
  - { offsetInCU: 0x105FC, offset: 0x105FC, size: 0x8, addend: 0x0, symName: __ZNSt3__111char_traitsIcE6lengthB8ue170006EPKc, symObjAddr: 0x2A30, symBinAddr: 0x100003230, symSize: 0x34 }
  - { offsetInCU: 0x10642, offset: 0x10642, size: 0x8, addend: 0x0, symName: __ZNKSt3__113basic_ostreamIcNS_11char_traitsIcEEE6sentrycvbB8ue170006Ev, symObjAddr: 0x2A64, symBinAddr: 0x100003264, symSize: 0x1C }
  - { offsetInCU: 0x10668, offset: 0x10668, size: 0x8, addend: 0x0, symName: __ZNSt3__119ostreambuf_iteratorIcNS_11char_traitsIcEEEC1B8ue170006ERNS_13basic_ostreamIcS2_EE, symObjAddr: 0x2CC0, symBinAddr: 0x1000034C0, symSize: 0x34 }
  - { offsetInCU: 0x106A0, offset: 0x106A0, size: 0x8, addend: 0x0, symName: __ZNKSt3__18ios_base5flagsB8ue170006Ev, symObjAddr: 0x2CF4, symBinAddr: 0x1000034F4, symSize: 0x18 }
  - { offsetInCU: 0x106C8, offset: 0x106C8, size: 0x8, addend: 0x0, symName: __ZNKSt3__19basic_iosIcNS_11char_traitsIcEEE4fillB8ue170006Ev, symObjAddr: 0x2D0C, symBinAddr: 0x10000350C, symSize: 0x64 }
  - { offsetInCU: 0x106F0, offset: 0x106F0, size: 0x8, addend: 0x0, symName: __ZNKSt3__119ostreambuf_iteratorIcNS_11char_traitsIcEEE6failedB8ue170006Ev, symObjAddr: 0x2D70, symBinAddr: 0x100003570, symSize: 0x24 }
  - { offsetInCU: 0x10716, offset: 0x10716, size: 0x8, addend: 0x0, symName: __ZNSt3__19basic_iosIcNS_11char_traitsIcEEE8setstateB8ue170006Ej, symObjAddr: 0x2D94, symBinAddr: 0x100003594, symSize: 0x2C }
  - { offsetInCU: 0x1074B, offset: 0x1074B, size: 0x8, addend: 0x0, symName: __ZNKSt3__18ios_base5widthB8ue170006Ev, symObjAddr: 0x2DC0, symBinAddr: 0x1000035C0, symSize: 0x18 }
  - { offsetInCU: 0x10773, offset: 0x10773, size: 0x8, addend: 0x0, symName: __ZNSt3__115basic_streambufIcNS_11char_traitsIcEEE5sputnB8ue170006EPKcl, symObjAddr: 0x2DD8, symBinAddr: 0x1000035D8, symSize: 0x3C }
  - { offsetInCU: 0x107B5, offset: 0x107B5, size: 0x8, addend: 0x0, symName: __ZNSt3__112basic_stringIcNS_11char_traitsIcEENS_9allocatorIcEEEC1B8ue170006Emc, symObjAddr: 0x2E14, symBinAddr: 0x100003614, symSize: 0x3C }
  - { offsetInCU: 0x107FD, offset: 0x107FD, size: 0x8, addend: 0x0, symName: __ZNSt3__112basic_stringIcNS_11char_traitsIcEENS_9allocatorIcEEE4dataB8ue170006Ev, symObjAddr: 0x2E50, symBinAddr: 0x100003650, symSize: 0x28 }
  - { offsetInCU: 0x10823, offset: 0x10823, size: 0x8, addend: 0x0, symName: __ZNSt3__18ios_base5widthB8ue170006El, symObjAddr: 0x2E78, symBinAddr: 0x100003678, symSize: 0x2C }
  - { offsetInCU: 0x10869, offset: 0x10869, size: 0x8, addend: 0x0, symName: __ZNSt3__112basic_stringIcNS_11char_traitsIcEENS_9allocatorIcEEEC2B8ue170006Emc, symObjAddr: 0x2EA4, symBinAddr: 0x1000036A4, symSize: 0x4C }
  - { offsetInCU: 0x108B1, offset: 0x108B1, size: 0x8, addend: 0x0, symName: __ZNSt3__117__compressed_pairINS_12basic_stringIcNS_11char_traitsIcEENS_9allocatorIcEEE5__repES5_EC1B8ue170006INS_18__default_init_tagESA_EEOT_OT0_, symObjAddr: 0x2EF0, symBinAddr: 0x1000036F0, symSize: 0x3C }
  - { offsetInCU: 0x10909, offset: 0x10909, size: 0x8, addend: 0x0, symName: __ZNSt3__117__compressed_pairINS_12basic_stringIcNS_11char_traitsIcEENS_9allocatorIcEEE5__repES5_EC2B8ue170006INS_18__default_init_tagESA_EEOT_OT0_, symObjAddr: 0x2F2C, symBinAddr: 0x10000372C, symSize: 0x3C }
  - { offsetInCU: 0x10961, offset: 0x10961, size: 0x8, addend: 0x0, symName: __ZNSt3__122__compressed_pair_elemINS_12basic_stringIcNS_11char_traitsIcEENS_9allocatorIcEEE5__repELi0ELb0EEC2B8ue170006ENS_18__default_init_tagE, symObjAddr: 0x2F68, symBinAddr: 0x100003768, symSize: 0x14 }
  - { offsetInCU: 0x10995, offset: 0x10995, size: 0x8, addend: 0x0, symName: __ZNSt3__122__compressed_pair_elemINS_9allocatorIcEELi1ELb1EEC2B8ue170006ENS_18__default_init_tagE, symObjAddr: 0x2F7C, symBinAddr: 0x10000377C, symSize: 0x2C }
  - { offsetInCU: 0x109C9, offset: 0x109C9, size: 0x8, addend: 0x0, symName: __ZNSt3__19allocatorIcEC2B8ue170006Ev, symObjAddr: 0x2FA8, symBinAddr: 0x1000037A8, symSize: 0x2C }
  - { offsetInCU: 0x109F3, offset: 0x109F3, size: 0x8, addend: 0x0, symName: __ZNSt3__116__non_trivial_ifILb1ENS_9allocatorIcEEEC2B8ue170006Ev, symObjAddr: 0x2FD4, symBinAddr: 0x1000037D4, symSize: 0x14 }
  - { offsetInCU: 0x10A1D, offset: 0x10A1D, size: 0x8, addend: 0x0, symName: __ZNSt3__112basic_stringIcNS_11char_traitsIcEENS_9allocatorIcEEE13__get_pointerB8ue170006Ev, symObjAddr: 0x2FFC, symBinAddr: 0x1000037FC, symSize: 0x54 }
  - { offsetInCU: 0x10A43, offset: 0x10A43, size: 0x8, addend: 0x0, symName: __ZNKSt3__112basic_stringIcNS_11char_traitsIcEENS_9allocatorIcEEE9__is_longB8ue170006Ev, symObjAddr: 0x3050, symBinAddr: 0x100003850, symSize: 0x38 }
  - { offsetInCU: 0x10A69, offset: 0x10A69, size: 0x8, addend: 0x0, symName: __ZNSt3__112basic_stringIcNS_11char_traitsIcEENS_9allocatorIcEEE18__get_long_pointerB8ue170006Ev, symObjAddr: 0x3088, symBinAddr: 0x100003888, symSize: 0x28 }
  - { offsetInCU: 0x10A8F, offset: 0x10A8F, size: 0x8, addend: 0x0, symName: __ZNSt3__112basic_stringIcNS_11char_traitsIcEENS_9allocatorIcEEE19__get_short_pointerB8ue170006Ev, symObjAddr: 0x30B0, symBinAddr: 0x1000038B0, symSize: 0x28 }
  - { offsetInCU: 0x10AB5, offset: 0x10AB5, size: 0x8, addend: 0x0, symName: __ZNKSt3__117__compressed_pairINS_12basic_stringIcNS_11char_traitsIcEENS_9allocatorIcEEE5__repES5_E5firstB8ue170006Ev, symObjAddr: 0x30D8, symBinAddr: 0x1000038D8, symSize: 0x24 }
  - { offsetInCU: 0x10ADB, offset: 0x10ADB, size: 0x8, addend: 0x0, symName: __ZNKSt3__122__compressed_pair_elemINS_12basic_stringIcNS_11char_traitsIcEENS_9allocatorIcEEE5__repELi0ELb0EE5__getB8ue170006Ev, symObjAddr: 0x30FC, symBinAddr: 0x1000038FC, symSize: 0x14 }
  - { offsetInCU: 0x10B01, offset: 0x10B01, size: 0x8, addend: 0x0, symName: __ZNSt3__117__compressed_pairINS_12basic_stringIcNS_11char_traitsIcEENS_9allocatorIcEEE5__repES5_E5firstB8ue170006Ev, symObjAddr: 0x3110, symBinAddr: 0x100003910, symSize: 0x24 }
  - { offsetInCU: 0x10B27, offset: 0x10B27, size: 0x8, addend: 0x0, symName: __ZNSt3__122__compressed_pair_elemINS_12basic_stringIcNS_11char_traitsIcEENS_9allocatorIcEEE5__repELi0ELb0EE5__getB8ue170006Ev, symObjAddr: 0x3134, symBinAddr: 0x100003934, symSize: 0x14 }
  - { offsetInCU: 0x10B4D, offset: 0x10B4D, size: 0x8, addend: 0x0, symName: __ZNSt3__114pointer_traitsIPcE10pointer_toB8ue170006ERc, symObjAddr: 0x3148, symBinAddr: 0x100003948, symSize: 0x14 }
  - { offsetInCU: 0x10B70, offset: 0x10B70, size: 0x8, addend: 0x0, symName: __ZNSt3__119ostreambuf_iteratorIcNS_11char_traitsIcEEEC2B8ue170006ERNS_13basic_ostreamIcS2_EE, symObjAddr: 0x315C, symBinAddr: 0x10000395C, symSize: 0x54 }
  - { offsetInCU: 0x10BA8, offset: 0x10BA8, size: 0x8, addend: 0x0, symName: __ZNKSt3__19basic_iosIcNS_11char_traitsIcEEE5rdbufB8ue170006Ev, symObjAddr: 0x31B0, symBinAddr: 0x1000039B0, symSize: 0x24 }
  - { offsetInCU: 0x10BD0, offset: 0x10BD0, size: 0x8, addend: 0x0, symName: __ZNKSt3__18ios_base5rdbufB8ue170006Ev, symObjAddr: 0x31D4, symBinAddr: 0x1000039D4, symSize: 0x18 }
  - { offsetInCU: 0x10BF6, offset: 0x10BF6, size: 0x8, addend: 0x0, symName: __ZNSt3__111char_traitsIcE11eq_int_typeB8ue170006Eii, symObjAddr: 0x31EC, symBinAddr: 0x1000039EC, symSize: 0x28 }
  - { offsetInCU: 0x10C29, offset: 0x10C29, size: 0x8, addend: 0x0, symName: __ZNSt3__111char_traitsIcE3eofB8ue170006Ev, symObjAddr: 0x3214, symBinAddr: 0x100003A14, symSize: 0x8 }
  - { offsetInCU: 0x10C3D, offset: 0x10C3D, size: 0x8, addend: 0x0, symName: __ZNSt3__18ios_base8setstateB8ue170006Ej, symObjAddr: 0x321C, symBinAddr: 0x100003A1C, symSize: 0x34 }
  - { offsetInCU: 0x10C74, offset: 0x10C74, size: 0x8, addend: 0x0, symName: __ZNSt3__16vectorINS_8functionIFvvEEENS_9allocatorIS3_EEEC2B8ue170006Ev, symObjAddr: 0x3274, symBinAddr: 0x100003A74, symSize: 0x4C }
  - { offsetInCU: 0x10C9E, offset: 0x10C9E, size: 0x8, addend: 0x0, symName: __ZNSt3__117__compressed_pairIPNS_8functionIFvvEEENS_9allocatorIS3_EEEC1B8ue170006IDnNS_18__default_init_tagEEEOT_OT0_, symObjAddr: 0x32C0, symBinAddr: 0x100003AC0, symSize: 0x3C }
  - { offsetInCU: 0x10CF6, offset: 0x10CF6, size: 0x8, addend: 0x0, symName: __ZNSt3__117__compressed_pairIPNS_8functionIFvvEEENS_9allocatorIS3_EEEC2B8ue170006IDnNS_18__default_init_tagEEEOT_OT0_, symObjAddr: 0x32FC, symBinAddr: 0x100003AFC, symSize: 0x40 }
  - { offsetInCU: 0x10D4E, offset: 0x10D4E, size: 0x8, addend: 0x0, symName: __ZNSt3__122__compressed_pair_elemIPNS_8functionIFvvEEELi0ELb0EEC2B8ue170006IDnvEEOT_, symObjAddr: 0x333C, symBinAddr: 0x100003B3C, symSize: 0x1C }
  - { offsetInCU: 0x10D90, offset: 0x10D90, size: 0x8, addend: 0x0, symName: __ZNSt3__122__compressed_pair_elemINS_9allocatorINS_8functionIFvvEEEEELi1ELb1EEC2B8ue170006ENS_18__default_init_tagE, symObjAddr: 0x3358, symBinAddr: 0x100003B58, symSize: 0x2C }
  - { offsetInCU: 0x10DC4, offset: 0x10DC4, size: 0x8, addend: 0x0, symName: __ZNSt3__19allocatorINS_8functionIFvvEEEEC2B8ue170006Ev, symObjAddr: 0x3384, symBinAddr: 0x100003B84, symSize: 0x2C }
  - { offsetInCU: 0x10DEE, offset: 0x10DEE, size: 0x8, addend: 0x0, symName: __ZNSt3__116__non_trivial_ifILb1ENS_9allocatorINS_8functionIFvvEEEEEEC2B8ue170006Ev, symObjAddr: 0x33B0, symBinAddr: 0x100003BB0, symSize: 0x14 }
  - { offsetInCU: 0x10E18, offset: 0x10E18, size: 0x8, addend: 0x0, symName: __ZNSt3__16vectorINS_8functionIFvvEEENS_9allocatorIS3_EEED2B8ue170006Ev, symObjAddr: 0x33C4, symBinAddr: 0x100003BC4, symSize: 0x44 }
  - { offsetInCU: 0x10E42, offset: 0x10E42, size: 0x8, addend: 0x0, symName: __ZNSt3__16vectorINS_8functionIFvvEEENS_9allocatorIS3_EEE16__destroy_vectorC1B8ue170006ERS6_, symObjAddr: 0x3408, symBinAddr: 0x100003C08, symSize: 0x34 }
  - { offsetInCU: 0x10E7B, offset: 0x10E7B, size: 0x8, addend: 0x0, symName: __ZNSt3__16vectorINS_8functionIFvvEEENS_9allocatorIS3_EEE16__destroy_vectorclB8ue170006Ev, symObjAddr: 0x343C, symBinAddr: 0x100003C3C, symSize: 0x90 }
  - { offsetInCU: 0x10EA1, offset: 0x10EA1, size: 0x8, addend: 0x0, symName: __ZNSt3__16vectorINS_8functionIFvvEEENS_9allocatorIS3_EEE16__destroy_vectorC2B8ue170006ERS6_, symObjAddr: 0x34CC, symBinAddr: 0x100003CCC, symSize: 0x20 }
  - { offsetInCU: 0x10EDA, offset: 0x10EDA, size: 0x8, addend: 0x0, symName: __ZNSt3__16vectorINS_8functionIFvvEEENS_9allocatorIS3_EEE7__clearB8ue170006Ev, symObjAddr: 0x34EC, symBinAddr: 0x100003CEC, symSize: 0x28 }
  - { offsetInCU: 0x10F00, offset: 0x10F00, size: 0x8, addend: 0x0, symName: __ZNKSt3__16vectorINS_8functionIFvvEEENS_9allocatorIS3_EEE17__annotate_deleteB8ue170006Ev, symObjAddr: 0x3514, symBinAddr: 0x100003D14, symSize: 0xB8 }
  - { offsetInCU: 0x10F26, offset: 0x10F26, size: 0x8, addend: 0x0, symName: __ZNSt3__116allocator_traitsINS_9allocatorINS_8functionIFvvEEEEEE10deallocateB8ue170006ERS5_PS4_m, symObjAddr: 0x35CC, symBinAddr: 0x100003DCC, symSize: 0x34 }
  - { offsetInCU: 0x10F68, offset: 0x10F68, size: 0x8, addend: 0x0, symName: __ZNSt3__16vectorINS_8functionIFvvEEENS_9allocatorIS3_EEE7__allocB8ue170006Ev, symObjAddr: 0x3600, symBinAddr: 0x100003E00, symSize: 0x28 }
  - { offsetInCU: 0x10F8E, offset: 0x10F8E, size: 0x8, addend: 0x0, symName: __ZNKSt3__16vectorINS_8functionIFvvEEENS_9allocatorIS3_EEE8capacityB8ue170006Ev, symObjAddr: 0x3628, symBinAddr: 0x100003E28, symSize: 0x40 }
  - { offsetInCU: 0x10FB4, offset: 0x10FB4, size: 0x8, addend: 0x0, symName: __ZNSt3__16vectorINS_8functionIFvvEEENS_9allocatorIS3_EEE22__base_destruct_at_endB8ue170006EPS3_, symObjAddr: 0x3668, symBinAddr: 0x100003E68, symSize: 0x8C }
  - { offsetInCU: 0x10FF8, offset: 0x10FF8, size: 0x8, addend: 0x0, symName: __ZNSt3__116allocator_traitsINS_9allocatorINS_8functionIFvvEEEEEE7destroyB8ue170006IS4_vEEvRS5_PT_, symObjAddr: 0x36F4, symBinAddr: 0x100003EF4, symSize: 0x2C }
  - { offsetInCU: 0x11035, offset: 0x11035, size: 0x8, addend: 0x0, symName: __ZNSt3__19allocatorINS_8functionIFvvEEEE7destroyB8ue170006EPS3_, symObjAddr: 0x3734, symBinAddr: 0x100003F34, symSize: 0x28 }
  - { offsetInCU: 0x11069, offset: 0x11069, size: 0x8, addend: 0x0, symName: __ZNKSt3__16vectorINS_8functionIFvvEEENS_9allocatorIS3_EEE31__annotate_contiguous_containerB8ue170006EPKvS8_S8_S8_, symObjAddr: 0x375C, symBinAddr: 0x100003F5C, symSize: 0x20 }
  - { offsetInCU: 0x110BF, offset: 0x110BF, size: 0x8, addend: 0x0, symName: __ZNKSt3__16vectorINS_8functionIFvvEEENS_9allocatorIS3_EEE4dataB8ue170006Ev, symObjAddr: 0x377C, symBinAddr: 0x100003F7C, symSize: 0x28 }
  - { offsetInCU: 0x110E5, offset: 0x110E5, size: 0x8, addend: 0x0, symName: __ZNKSt3__16vectorINS_8functionIFvvEEENS_9allocatorIS3_EEE4sizeB8ue170006Ev, symObjAddr: 0x37A4, symBinAddr: 0x100003FA4, symSize: 0x28 }
  - { offsetInCU: 0x1110B, offset: 0x1110B, size: 0x8, addend: 0x0, symName: __ZNSt3__19allocatorINS_8functionIFvvEEEE10deallocateB8ue170006EPS3_m, symObjAddr: 0x37CC, symBinAddr: 0x100003FCC, symSize: 0x40 }
  - { offsetInCU: 0x1114D, offset: 0x1114D, size: 0x8, addend: 0x0, symName: __ZNSt3__117__compressed_pairIPNS_8functionIFvvEEENS_9allocatorIS3_EEE6secondB8ue170006Ev, symObjAddr: 0x380C, symBinAddr: 0x10000400C, symSize: 0x24 }
  - { offsetInCU: 0x11173, offset: 0x11173, size: 0x8, addend: 0x0, symName: __ZNSt3__122__compressed_pair_elemINS_9allocatorINS_8functionIFvvEEEEELi1ELb1EE5__getB8ue170006Ev, symObjAddr: 0x3830, symBinAddr: 0x100004030, symSize: 0x14 }
  - { offsetInCU: 0x11199, offset: 0x11199, size: 0x8, addend: 0x0, symName: __ZNKSt3__16vectorINS_8functionIFvvEEENS_9allocatorIS3_EEE9__end_capB8ue170006Ev, symObjAddr: 0x3844, symBinAddr: 0x100004044, symSize: 0x28 }
  - { offsetInCU: 0x111BF, offset: 0x111BF, size: 0x8, addend: 0x0, symName: __ZNKSt3__117__compressed_pairIPNS_8functionIFvvEEENS_9allocatorIS3_EEE5firstB8ue170006Ev, symObjAddr: 0x386C, symBinAddr: 0x10000406C, symSize: 0x24 }
  - { offsetInCU: 0x111E5, offset: 0x111E5, size: 0x8, addend: 0x0, symName: __ZNKSt3__122__compressed_pair_elemIPNS_8functionIFvvEEELi0ELb0EE5__getB8ue170006Ev, symObjAddr: 0x3890, symBinAddr: 0x100004090, symSize: 0x14 }
  - { offsetInCU: 0x1120B, offset: 0x1120B, size: 0x8, addend: 0x0, symName: __ZNSt3__16vectorINS_8functionIFvvEEENS_9allocatorIS3_EEE9__end_capB8ue170006Ev, symObjAddr: 0x38A4, symBinAddr: 0x1000040A4, symSize: 0x28 }
  - { offsetInCU: 0x11231, offset: 0x11231, size: 0x8, addend: 0x0, symName: __ZNSt3__16vectorINS_8functionIFvvEEENS_9allocatorIS3_EEE22__construct_one_at_endB8ue170006IJS3_EEEvDpOT_, symObjAddr: 0x38CC, symBinAddr: 0x1000040CC, symSize: 0x90 }
  - { offsetInCU: 0x11280, offset: 0x11280, size: 0x8, addend: 0x0, symName: __ZNSt3__16vectorINS_8functionIFvvEEENS_9allocatorIS3_EEE21__push_back_slow_pathIS3_EEvOT_, symObjAddr: 0x395C, symBinAddr: 0x10000415C, symSize: 0xD8 }
  - { offsetInCU: 0x112DE, offset: 0x112DE, size: 0x8, addend: 0x0, symName: __ZNSt3__117__compressed_pairIPNS_8functionIFvvEEENS_9allocatorIS3_EEE5firstB8ue170006Ev, symObjAddr: 0x3A34, symBinAddr: 0x100004234, symSize: 0x24 }
  - { offsetInCU: 0x11304, offset: 0x11304, size: 0x8, addend: 0x0, symName: __ZNSt3__122__compressed_pair_elemIPNS_8functionIFvvEEELi0ELb0EE5__getB8ue170006Ev, symObjAddr: 0x3A58, symBinAddr: 0x100004258, symSize: 0x14 }
  - { offsetInCU: 0x11346, offset: 0x11346, size: 0x8, addend: 0x0, symName: __ZNSt3__16vectorINS_8functionIFvvEEENS_9allocatorIS3_EEE21_ConstructTransactionC1B8ue170006ERS6_m, symObjAddr: 0x3A6C, symBinAddr: 0x10000426C, symSize: 0x3C }
  - { offsetInCU: 0x1138E, offset: 0x1138E, size: 0x8, addend: 0x0, symName: __ZNSt3__116allocator_traitsINS_9allocatorINS_8functionIFvvEEEEEE9constructB8ue170006IS4_JS4_EvEEvRS5_PT_DpOT0_, symObjAddr: 0x3AA8, symBinAddr: 0x1000042A8, symSize: 0x34 }
  - { offsetInCU: 0x113E5, offset: 0x113E5, size: 0x8, addend: 0x0, symName: __ZNSt3__16vectorINS_8functionIFvvEEENS_9allocatorIS3_EEE21_ConstructTransactionD1B8ue170006Ev, symObjAddr: 0x3ADC, symBinAddr: 0x1000042DC, symSize: 0x2C }
  - { offsetInCU: 0x1140F, offset: 0x1140F, size: 0x8, addend: 0x0, symName: __ZNSt3__16vectorINS_8functionIFvvEEENS_9allocatorIS3_EEE21_ConstructTransactionC2B8ue170006ERS6_m, symObjAddr: 0x3B08, symBinAddr: 0x100004308, symSize: 0x44 }
  - { offsetInCU: 0x11457, offset: 0x11457, size: 0x8, addend: 0x0, symName: __ZNSt3__19allocatorINS_8functionIFvvEEEE9constructB8ue170006IS3_JS3_EEEvPT_DpOT0_, symObjAddr: 0x3B4C, symBinAddr: 0x10000434C, symSize: 0x30 }
  - { offsetInCU: 0x114AD, offset: 0x114AD, size: 0x8, addend: 0x0, symName: __ZNSt3__18functionIFvvEEC1EOS2_, symObjAddr: 0x3B7C, symBinAddr: 0x10000437C, symSize: 0x34 }
  - { offsetInCU: 0x114E8, offset: 0x114E8, size: 0x8, addend: 0x0, symName: __ZNSt3__18functionIFvvEEC2EOS2_, symObjAddr: 0x3BB0, symBinAddr: 0x1000043B0, symSize: 0x34 }
  - { offsetInCU: 0x11523, offset: 0x11523, size: 0x8, addend: 0x0, symName: __ZNSt3__110__function12__value_funcIFvvEEC1B8ue170006EOS3_, symObjAddr: 0x3BE4, symBinAddr: 0x1000043E4, symSize: 0x34 }
  - { offsetInCU: 0x1155C, offset: 0x1155C, size: 0x8, addend: 0x0, symName: __ZNSt3__110__function12__value_funcIFvvEEC2B8ue170006EOS3_, symObjAddr: 0x3C18, symBinAddr: 0x100004418, symSize: 0xD0 }
  - { offsetInCU: 0x11595, offset: 0x11595, size: 0x8, addend: 0x0, symName: __ZNSt3__110__function12__value_funcIFvvEE9__as_baseB8ue170006EPv, symObjAddr: 0x3CE8, symBinAddr: 0x1000044E8, symSize: 0x14 }
  - { offsetInCU: 0x115B9, offset: 0x115B9, size: 0x8, addend: 0x0, symName: __ZNSt3__16vectorINS_8functionIFvvEEENS_9allocatorIS3_EEE21_ConstructTransactionD2B8ue170006Ev, symObjAddr: 0x3CFC, symBinAddr: 0x1000044FC, symSize: 0x20 }
  - { offsetInCU: 0x115E3, offset: 0x115E3, size: 0x8, addend: 0x0, symName: __ZNKSt3__16vectorINS_8functionIFvvEEENS_9allocatorIS3_EEE11__recommendB8ue170006Em, symObjAddr: 0x3D1C, symBinAddr: 0x10000451C, symSize: 0xB4 }
  - { offsetInCU: 0x11638, offset: 0x11638, size: 0x8, addend: 0x0, symName: __ZNSt3__114__split_bufferINS_8functionIFvvEEERNS_9allocatorIS3_EEEC1EmmS6_, symObjAddr: 0x3DD0, symBinAddr: 0x1000045D0, symSize: 0x44 }
  - { offsetInCU: 0x1168E, offset: 0x1168E, size: 0x8, addend: 0x0, symName: __ZNSt3__114__split_bufferINS_8functionIFvvEEERNS_9allocatorIS3_EEED1Ev, symObjAddr: 0x3F24, symBinAddr: 0x100004724, symSize: 0x2C }
  - { offsetInCU: 0x116BA, offset: 0x116BA, size: 0x8, addend: 0x0, symName: __ZNKSt3__16vectorINS_8functionIFvvEEENS_9allocatorIS3_EEE8max_sizeEv, symObjAddr: 0x3F50, symBinAddr: 0x100004750, symSize: 0x60 }
  - { offsetInCU: 0x116E2, offset: 0x116E2, size: 0x8, addend: 0x0, symName: __ZNKSt3__16vectorINS_8functionIFvvEEENS_9allocatorIS3_EEE20__throw_length_errorB8ue170006Ev, symObjAddr: 0x3FB0, symBinAddr: 0x1000047B0, symSize: 0x1C }
  - { offsetInCU: 0x11713, offset: 0x11713, size: 0x8, addend: 0x0, symName: __ZNSt3__116allocator_traitsINS_9allocatorINS_8functionIFvvEEEEEE8max_sizeB8ue170006IS5_vEEmRKS5_, symObjAddr: 0x3FF8, symBinAddr: 0x1000047F8, symSize: 0x24 }
  - { offsetInCU: 0x11741, offset: 0x11741, size: 0x8, addend: 0x0, symName: __ZNKSt3__16vectorINS_8functionIFvvEEENS_9allocatorIS3_EEE7__allocB8ue170006Ev, symObjAddr: 0x401C, symBinAddr: 0x10000481C, symSize: 0x28 }
  - { offsetInCU: 0x11767, offset: 0x11767, size: 0x8, addend: 0x0, symName: __ZNKSt3__19allocatorINS_8functionIFvvEEEE8max_sizeB8ue170006Ev, symObjAddr: 0x4044, symBinAddr: 0x100004844, symSize: 0x14 }
  - { offsetInCU: 0x1178D, offset: 0x1178D, size: 0x8, addend: 0x0, symName: __ZNKSt3__117__compressed_pairIPNS_8functionIFvvEEENS_9allocatorIS3_EEE6secondB8ue170006Ev, symObjAddr: 0x4058, symBinAddr: 0x100004858, symSize: 0x24 }
  - { offsetInCU: 0x117B3, offset: 0x117B3, size: 0x8, addend: 0x0, symName: __ZNKSt3__122__compressed_pair_elemINS_9allocatorINS_8functionIFvvEEEEELi1ELb1EE5__getB8ue170006Ev, symObjAddr: 0x407C, symBinAddr: 0x10000487C, symSize: 0x14 }
  - { offsetInCU: 0x117D9, offset: 0x117D9, size: 0x8, addend: 0x0, symName: __ZNSt3__114__split_bufferINS_8functionIFvvEEERNS_9allocatorIS3_EEEC2EmmS6_, symObjAddr: 0x40E4, symBinAddr: 0x1000048E4, symSize: 0xD4 }
  - { offsetInCU: 0x1184D, offset: 0x1184D, size: 0x8, addend: 0x0, symName: __ZNSt3__117__compressed_pairIPNS_8functionIFvvEEERNS_9allocatorIS3_EEEC1B8ue170006IDnS7_EEOT_OT0_, symObjAddr: 0x41B8, symBinAddr: 0x1000049B8, symSize: 0x3C }
  - { offsetInCU: 0x118A5, offset: 0x118A5, size: 0x8, addend: 0x0, symName: __ZNSt3__114__split_bufferINS_8functionIFvvEEERNS_9allocatorIS3_EEE7__allocB8ue170006Ev, symObjAddr: 0x4234, symBinAddr: 0x100004A34, symSize: 0x28 }
  - { offsetInCU: 0x118CB, offset: 0x118CB, size: 0x8, addend: 0x0, symName: __ZNSt3__114__split_bufferINS_8functionIFvvEEERNS_9allocatorIS3_EEE9__end_capB8ue170006Ev, symObjAddr: 0x425C, symBinAddr: 0x100004A5C, symSize: 0x28 }
  - { offsetInCU: 0x118F1, offset: 0x118F1, size: 0x8, addend: 0x0, symName: __ZNSt3__117__compressed_pairIPNS_8functionIFvvEEERNS_9allocatorIS3_EEEC2B8ue170006IDnS7_EEOT_OT0_, symObjAddr: 0x4284, symBinAddr: 0x100004A84, symSize: 0x48 }
  - { offsetInCU: 0x11949, offset: 0x11949, size: 0x8, addend: 0x0, symName: __ZNSt3__122__compressed_pair_elemIRNS_9allocatorINS_8functionIFvvEEEEELi1ELb0EEC2B8ue170006IS6_vEEOT_, symObjAddr: 0x42CC, symBinAddr: 0x100004ACC, symSize: 0x20 }
  - { offsetInCU: 0x1198B, offset: 0x1198B, size: 0x8, addend: 0x0, symName: __ZNSt3__19allocatorINS_8functionIFvvEEEE8allocateB8ue170006Em, symObjAddr: 0x42EC, symBinAddr: 0x100004AEC, symSize: 0x58 }
  - { offsetInCU: 0x119BF, offset: 0x119BF, size: 0x8, addend: 0x0, symName: __ZNSt3__117__compressed_pairIPNS_8functionIFvvEEERNS_9allocatorIS3_EEE6secondB8ue170006Ev, symObjAddr: 0x4344, symBinAddr: 0x100004B44, symSize: 0x28 }
  - { offsetInCU: 0x119E5, offset: 0x119E5, size: 0x8, addend: 0x0, symName: __ZNSt3__122__compressed_pair_elemIRNS_9allocatorINS_8functionIFvvEEEEELi1ELb0EE5__getB8ue170006Ev, symObjAddr: 0x436C, symBinAddr: 0x100004B6C, symSize: 0x18 }
  - { offsetInCU: 0x11A0B, offset: 0x11A0B, size: 0x8, addend: 0x0, symName: __ZNSt3__117__compressed_pairIPNS_8functionIFvvEEERNS_9allocatorIS3_EEE5firstB8ue170006Ev, symObjAddr: 0x4384, symBinAddr: 0x100004B84, symSize: 0x24 }
  - { offsetInCU: 0x11A31, offset: 0x11A31, size: 0x8, addend: 0x0, symName: __ZNSt3__116reverse_iteratorIPNS_8functionIFvvEEEEC1B8ue170006ES4_, symObjAddr: 0x44D4, symBinAddr: 0x100004CD4, symSize: 0x34 }
  - { offsetInCU: 0x11A69, offset: 0x11A69, size: 0x8, addend: 0x0, symName: __ZNKSt3__116reverse_iteratorIPNS_8functionIFvvEEEE4baseB8ue170006Ev, symObjAddr: 0x4508, symBinAddr: 0x100004D08, symSize: 0x18 }
  - { offsetInCU: 0x11A8F, offset: 0x11A8F, size: 0x8, addend: 0x0, symName: __ZNKSt3__16vectorINS_8functionIFvvEEENS_9allocatorIS3_EEE14__annotate_newB8ue170006Em, symObjAddr: 0x455C, symBinAddr: 0x100004D5C, symSize: 0xAC }
  - { offsetInCU: 0x11AC4, offset: 0x11AC4, size: 0x8, addend: 0x0, symName: __ZNSt3__129_AllocatorDestroyRangeReverseINS_9allocatorINS_8functionIFvvEEEEENS_16reverse_iteratorIPS4_EEEC1B8ue170006ERS5_RS8_SB_, symObjAddr: 0x4654, symBinAddr: 0x100004E54, symSize: 0x44 }
  - { offsetInCU: 0x11B1B, offset: 0x11B1B, size: 0x8, addend: 0x0, symName: __ZNKSt3__116reverse_iteratorIPNS_8functionIFvvEEEEdeB8ue170006Ev, symObjAddr: 0x4704, symBinAddr: 0x100004F04, symSize: 0x28 }
  - { offsetInCU: 0x11B4F, offset: 0x11B4F, size: 0x8, addend: 0x0, symName: __ZNSt3__116reverse_iteratorIPNS_8functionIFvvEEEEppB8ue170006Ev, symObjAddr: 0x472C, symBinAddr: 0x100004F2C, symSize: 0x20 }
  - { offsetInCU: 0x11B75, offset: 0x11B75, size: 0x8, addend: 0x0, symName: __ZNSt3__128__exception_guard_exceptionsINS_29_AllocatorDestroyRangeReverseINS_9allocatorINS_8functionIFvvEEEEENS_16reverse_iteratorIPS5_EEEEE10__completeB8ue170006Ev, symObjAddr: 0x474C, symBinAddr: 0x100004F4C, symSize: 0x1C }
  - { offsetInCU: 0x11B9B, offset: 0x11B9B, size: 0x8, addend: 0x0, symName: __ZNSt3__128__exception_guard_exceptionsINS_29_AllocatorDestroyRangeReverseINS_9allocatorINS_8functionIFvvEEEEENS_16reverse_iteratorIPS5_EEEEED1B8ue170006Ev, symObjAddr: 0x4768, symBinAddr: 0x100004F68, symSize: 0x2C }
  - { offsetInCU: 0x11BC5, offset: 0x11BC5, size: 0x8, addend: 0x0, symName: __ZNSt3__128__exception_guard_exceptionsINS_29_AllocatorDestroyRangeReverseINS_9allocatorINS_8functionIFvvEEEEENS_16reverse_iteratorIPS5_EEEEEC1B8ue170006ESA_, symObjAddr: 0x4794, symBinAddr: 0x100004F94, symSize: 0x34 }
  - { offsetInCU: 0x11BFE, offset: 0x11BFE, size: 0x8, addend: 0x0, symName: __ZNSt3__128__exception_guard_exceptionsINS_29_AllocatorDestroyRangeReverseINS_9allocatorINS_8functionIFvvEEEEENS_16reverse_iteratorIPS5_EEEEEC2B8ue170006ESA_, symObjAddr: 0x47C8, symBinAddr: 0x100004FC8, symSize: 0x30 }
  - { offsetInCU: 0x11C37, offset: 0x11C37, size: 0x8, addend: 0x0, symName: __ZNSt3__129_AllocatorDestroyRangeReverseINS_9allocatorINS_8functionIFvvEEEEENS_16reverse_iteratorIPS4_EEEC2B8ue170006ERS5_RS8_SB_, symObjAddr: 0x47F8, symBinAddr: 0x100004FF8, symSize: 0x38 }
  - { offsetInCU: 0x11C94, offset: 0x11C94, size: 0x8, addend: 0x0, symName: __ZNSt3__119__to_address_helperINS_16reverse_iteratorIPNS_8functionIFvvEEEEEvE6__callB8ue170006ERKS6_, symObjAddr: 0x4830, symBinAddr: 0x100005030, symSize: 0x38 }
  - { offsetInCU: 0x11CB7, offset: 0x11CB7, size: 0x8, addend: 0x0, symName: __ZNKSt3__116reverse_iteratorIPNS_8functionIFvvEEEEptB8ue170006Ev, symObjAddr: 0x4868, symBinAddr: 0x100005068, symSize: 0x24 }
  - { offsetInCU: 0x11CDD, offset: 0x11CDD, size: 0x8, addend: 0x0, symName: __ZNSt3__128__exception_guard_exceptionsINS_29_AllocatorDestroyRangeReverseINS_9allocatorINS_8functionIFvvEEEEENS_16reverse_iteratorIPS5_EEEEED2B8ue170006Ev, symObjAddr: 0x488C, symBinAddr: 0x10000508C, symSize: 0x50 }
  - { offsetInCU: 0x11D07, offset: 0x11D07, size: 0x8, addend: 0x0, symName: __ZNKSt3__129_AllocatorDestroyRangeReverseINS_9allocatorINS_8functionIFvvEEEEENS_16reverse_iteratorIPS4_EEEclB8ue170006Ev, symObjAddr: 0x48DC, symBinAddr: 0x1000050DC, symSize: 0xB4 }
  - { offsetInCU: 0x11D2E, offset: 0x11D2E, size: 0x8, addend: 0x0, symName: __ZNSt3__116reverse_iteratorINS0_IPNS_8functionIFvvEEEEEEC1B8ue170006ES5_, symObjAddr: 0x4A00, symBinAddr: 0x100005200, symSize: 0x3C }
  - { offsetInCU: 0x11D66, offset: 0x11D66, size: 0x8, addend: 0x0, symName: __ZNSt3__116reverse_iteratorINS0_IPNS_8functionIFvvEEEEEEppB8ue170006Ev, symObjAddr: 0x4AC0, symBinAddr: 0x1000052C0, symSize: 0x30 }
  - { offsetInCU: 0x11D8C, offset: 0x11D8C, size: 0x8, addend: 0x0, symName: __ZNKSt3__116reverse_iteratorINS0_IPNS_8functionIFvvEEEEEE4baseB8ue170006Ev, symObjAddr: 0x4AF0, symBinAddr: 0x1000052F0, symSize: 0x24 }
  - { offsetInCU: 0x11DB8, offset: 0x11DB8, size: 0x8, addend: 0x0, symName: __ZNSt3__119__to_address_helperINS_16reverse_iteratorINS1_IPNS_8functionIFvvEEEEEEEvE6__callB8ue170006ERKS7_, symObjAddr: 0x4B14, symBinAddr: 0x100005314, symSize: 0x38 }
  - { offsetInCU: 0x11DDB, offset: 0x11DDB, size: 0x8, addend: 0x0, symName: __ZNKSt3__116reverse_iteratorINS0_IPNS_8functionIFvvEEEEEEptB8ue170006Ev, symObjAddr: 0x4B4C, symBinAddr: 0x10000534C, symSize: 0x24 }
  - { offsetInCU: 0x11E01, offset: 0x11E01, size: 0x8, addend: 0x0, symName: __ZNKSt3__116reverse_iteratorINS0_IPNS_8functionIFvvEEEEEEdeB8ue170006Ev, symObjAddr: 0x4B70, symBinAddr: 0x100005370, symSize: 0x34 }
  - { offsetInCU: 0x11E35, offset: 0x11E35, size: 0x8, addend: 0x0, symName: __ZNSt3__116reverse_iteratorIPNS_8functionIFvvEEEEmmB8ue170006Ev, symObjAddr: 0x4BA4, symBinAddr: 0x1000053A4, symSize: 0x20 }
  - { offsetInCU: 0x11E5B, offset: 0x11E5B, size: 0x8, addend: 0x0, symName: __ZNSt3__116reverse_iteratorINS0_IPNS_8functionIFvvEEEEEEC2B8ue170006ES5_, symObjAddr: 0x4BC4, symBinAddr: 0x1000053C4, symSize: 0x2C }
  - { offsetInCU: 0x11E93, offset: 0x11E93, size: 0x8, addend: 0x0, symName: __ZNSt3__116reverse_iteratorIPNS_8functionIFvvEEEEC2B8ue170006ES4_, symObjAddr: 0x4BF0, symBinAddr: 0x1000053F0, symSize: 0x28 }
  - { offsetInCU: 0x11ECB, offset: 0x11ECB, size: 0x8, addend: 0x0, symName: __ZNSt3__114__split_bufferINS_8functionIFvvEEERNS_9allocatorIS3_EEED2Ev, symObjAddr: 0x4C18, symBinAddr: 0x100005418, symSize: 0x8C }
  - { offsetInCU: 0x11EF7, offset: 0x11EF7, size: 0x8, addend: 0x0, symName: __ZNSt3__114__split_bufferINS_8functionIFvvEEERNS_9allocatorIS3_EEE5clearB8ue170006Ev, symObjAddr: 0x4CA4, symBinAddr: 0x1000054A4, symSize: 0x28 }
  - { offsetInCU: 0x11F1D, offset: 0x11F1D, size: 0x8, addend: 0x0, symName: __ZNKSt3__114__split_bufferINS_8functionIFvvEEERNS_9allocatorIS3_EEE8capacityB8ue170006Ev, symObjAddr: 0x4CCC, symBinAddr: 0x1000054CC, symSize: 0x40 }
  - { offsetInCU: 0x11F43, offset: 0x11F43, size: 0x8, addend: 0x0, symName: __ZNSt3__114__split_bufferINS_8functionIFvvEEERNS_9allocatorIS3_EEE17__destruct_at_endB8ue170006EPS3_, symObjAddr: 0x4D0C, symBinAddr: 0x10000550C, symSize: 0x2C }
  - { offsetInCU: 0x11F77, offset: 0x11F77, size: 0x8, addend: 0x0, symName: __ZNSt3__114__split_bufferINS_8functionIFvvEEERNS_9allocatorIS3_EEE17__destruct_at_endB8ue170006EPS3_NS_17integral_constantIbLb0EEE, symObjAddr: 0x4D38, symBinAddr: 0x100005538, symSize: 0x80 }
  - { offsetInCU: 0x11FB7, offset: 0x11FB7, size: 0x8, addend: 0x0, symName: __ZNKSt3__114__split_bufferINS_8functionIFvvEEERNS_9allocatorIS3_EEE9__end_capB8ue170006Ev, symObjAddr: 0x4DB8, symBinAddr: 0x1000055B8, symSize: 0x28 }
  - { offsetInCU: 0x11FDD, offset: 0x11FDD, size: 0x8, addend: 0x0, symName: __ZNKSt3__117__compressed_pairIPNS_8functionIFvvEEERNS_9allocatorIS3_EEE5firstB8ue170006Ev, symObjAddr: 0x4DE0, symBinAddr: 0x1000055E0, symSize: 0x24 }
  - { offsetInCU: 0x12003, offset: 0x12003, size: 0x8, addend: 0x0, symName: '__ZNSt3__18functionIFvvEEC2IZ4mainE3$_1vEET_', symObjAddr: 0x4E04, symBinAddr: 0x100005604, symSize: 0x38 }
  - { offsetInCU: 0x12048, offset: 0x12048, size: 0x8, addend: 0x0, symName: '__ZNSt3__110__function12__value_funcIFvvEEC1B8ue170006IZ4mainE3$_1vEEOT_', symObjAddr: 0x4E3C, symBinAddr: 0x10000563C, symSize: 0x50 }
  - { offsetInCU: 0x1208B, offset: 0x1208B, size: 0x8, addend: 0x0, symName: '__ZNSt3__19allocatorIZ4mainE3$_1EC1B8ue170006Ev', symObjAddr: 0x4E8C, symBinAddr: 0x10000568C, symSize: 0x2C }
  - { offsetInCU: 0x120B5, offset: 0x120B5, size: 0x8, addend: 0x0, symName: '__ZNSt3__110__function12__value_funcIFvvEEC1B8ue170006IZ4mainE3$_1NS_9allocatorIS5_EEEEOT_RKT0_', symObjAddr: 0x4EB8, symBinAddr: 0x1000056B8, symSize: 0x3C }
  - { offsetInCU: 0x1210F, offset: 0x1210F, size: 0x8, addend: 0x0, symName: '__ZNSt3__19allocatorIZ4mainE3$_1EC2B8ue170006Ev', symObjAddr: 0x4EF4, symBinAddr: 0x1000056F4, symSize: 0x2C }
  - { offsetInCU: 0x12139, offset: 0x12139, size: 0x8, addend: 0x0, symName: '__ZNSt3__116__non_trivial_ifILb1ENS_9allocatorIZ4mainE3$_1EEEC2B8ue170006Ev', symObjAddr: 0x4F20, symBinAddr: 0x100005720, symSize: 0x14 }
  - { offsetInCU: 0x12163, offset: 0x12163, size: 0x8, addend: 0x0, symName: '__ZNSt3__110__function12__value_funcIFvvEEC2B8ue170006IZ4mainE3$_1NS_9allocatorIS5_EEEEOT_RKT0_', symObjAddr: 0x4F34, symBinAddr: 0x100005734, symSize: 0x94 }
  - { offsetInCU: 0x12210, offset: 0x12210, size: 0x8, addend: 0x0, symName: '__ZNSt3__19allocatorINS_10__function6__funcIZ4mainE3$_1NS0_IS3_EEFvvEEEEC1B8ue170006IS3_EERKNS0_IT_EE', symObjAddr: 0x4FE0, symBinAddr: 0x1000057E0, symSize: 0x34 }
  - { offsetInCU: 0x12253, offset: 0x12253, size: 0x8, addend: 0x0, symName: '__ZNSt3__19allocatorIZ4mainE3$_1EC1B8ue170006INS_10__function6__funcIS1_S2_FvvEEEEERKNS0_IT_EE', symObjAddr: 0x5014, symBinAddr: 0x100005814, symSize: 0x34 }
  - { offsetInCU: 0x12290, offset: 0x12290, size: 0x8, addend: 0x0, symName: '__ZNSt3__110__function6__funcIZ4mainE3$_1NS_9allocatorIS2_EEFvvEEC1B8ue170006EOS2_OS4_', symObjAddr: 0x5048, symBinAddr: 0x100005848, symSize: 0x3C }
  - { offsetInCU: 0x122D8, offset: 0x122D8, size: 0x8, addend: 0x0, symName: '__ZNSt3__19allocatorINS_10__function6__funcIZ4mainE3$_1NS0_IS3_EEFvvEEEEC2B8ue170006IS3_EERKNS0_IT_EE', symObjAddr: 0x5084, symBinAddr: 0x100005884, symSize: 0x30 }
  - { offsetInCU: 0x12315, offset: 0x12315, size: 0x8, addend: 0x0, symName: '__ZNSt3__116__non_trivial_ifILb1ENS_9allocatorINS_10__function6__funcIZ4mainE3$_1NS1_IS4_EEFvvEEEEEEC2B8ue170006Ev', symObjAddr: 0x50B4, symBinAddr: 0x1000058B4, symSize: 0x14 }
  - { offsetInCU: 0x1233F, offset: 0x1233F, size: 0x8, addend: 0x0, symName: '__ZNSt3__19allocatorIZ4mainE3$_1EC2B8ue170006INS_10__function6__funcIS1_S2_FvvEEEEERKNS0_IT_EE', symObjAddr: 0x50C8, symBinAddr: 0x1000058C8, symSize: 0x30 }
  - { offsetInCU: 0x1237C, offset: 0x1237C, size: 0x8, addend: 0x0, symName: '__ZNSt3__110__function6__funcIZ4mainE3$_1NS_9allocatorIS2_EEFvvEEC2B8ue170006EOS2_OS4_', symObjAddr: 0x50F8, symBinAddr: 0x1000058F8, symSize: 0x88 }
  - { offsetInCU: 0x123C4, offset: 0x123C4, size: 0x8, addend: 0x0, symName: __ZNSt3__110__function6__baseIFvvEEC2B8ue170006Ev, symObjAddr: 0x5180, symBinAddr: 0x100005980, symSize: 0x24 }
  - { offsetInCU: 0x123EE, offset: 0x123EE, size: 0x8, addend: 0x0, symName: '__ZNSt3__110__function12__alloc_funcIZ4mainE3$_1NS_9allocatorIS2_EEFvvEEC1B8ue170006EOS2_OS4_', symObjAddr: 0x51A4, symBinAddr: 0x1000059A4, symSize: 0x3C }
  - { offsetInCU: 0x12434, offset: 0x12434, size: 0x8, addend: 0x0, symName: __ZNSt3__110__function6__baseIFvvEED2Ev, symObjAddr: 0x51E0, symBinAddr: 0x1000059E0, symSize: 0x14 }
  - { offsetInCU: 0x1245E, offset: 0x1245E, size: 0x8, addend: 0x0, symName: '__ZNSt3__110__function6__funcIZ4mainE3$_1NS_9allocatorIS2_EEFvvEED1Ev', symObjAddr: 0x51F4, symBinAddr: 0x1000059F4, symSize: 0x2C }
  - { offsetInCU: 0x1248B, offset: 0x1248B, size: 0x8, addend: 0x0, symName: '__ZNSt3__110__function6__funcIZ4mainE3$_1NS_9allocatorIS2_EEFvvEED0Ev', symObjAddr: 0x5220, symBinAddr: 0x100005A20, symSize: 0x30 }
  - { offsetInCU: 0x124B8, offset: 0x124B8, size: 0x8, addend: 0x0, symName: '__ZNKSt3__110__function6__funcIZ4mainE3$_1NS_9allocatorIS2_EEFvvEE7__cloneEv', symObjAddr: 0x5250, symBinAddr: 0x100005A50, symSize: 0xFC }
  - { offsetInCU: 0x1250A, offset: 0x1250A, size: 0x8, addend: 0x0, symName: '__ZNKSt3__110__function6__funcIZ4mainE3$_1NS_9allocatorIS2_EEFvvEE7__cloneEPNS0_6__baseIS5_EE', symObjAddr: 0x534C, symBinAddr: 0x100005B4C, symSize: 0x58 }
  - { offsetInCU: 0x12541, offset: 0x12541, size: 0x8, addend: 0x0, symName: '__ZNSt3__110__function6__funcIZ4mainE3$_1NS_9allocatorIS2_EEFvvEE7destroyEv', symObjAddr: 0x53A4, symBinAddr: 0x100005BA4, symSize: 0x28 }
  - { offsetInCU: 0x12569, offset: 0x12569, size: 0x8, addend: 0x0, symName: '__ZNSt3__110__function6__funcIZ4mainE3$_1NS_9allocatorIS2_EEFvvEE18destroy_deallocateEv', symObjAddr: 0x53CC, symBinAddr: 0x100005BCC, symSize: 0x58 }
  - { offsetInCU: 0x125AC, offset: 0x125AC, size: 0x8, addend: 0x0, symName: '__ZNSt3__110__function6__funcIZ4mainE3$_1NS_9allocatorIS2_EEFvvEEclEv', symObjAddr: 0x5424, symBinAddr: 0x100005C24, symSize: 0x28 }
  - { offsetInCU: 0x125D4, offset: 0x125D4, size: 0x8, addend: 0x0, symName: '__ZNKSt3__110__function6__funcIZ4mainE3$_1NS_9allocatorIS2_EEFvvEE6targetERKSt9type_info', symObjAddr: 0x544C, symBinAddr: 0x100005C4C, symSize: 0x60 }
  - { offsetInCU: 0x1260B, offset: 0x1260B, size: 0x8, addend: 0x0, symName: '__ZNKSt3__110__function6__funcIZ4mainE3$_1NS_9allocatorIS2_EEFvvEE11target_typeEv', symObjAddr: 0x54AC, symBinAddr: 0x100005CAC, symSize: 0x18 }
  - { offsetInCU: 0x12633, offset: 0x12633, size: 0x8, addend: 0x0, symName: __ZNSt3__110__function6__baseIFvvEED1Ev, symObjAddr: 0x54C4, symBinAddr: 0x100005CC4, symSize: 0x14 }
  - { offsetInCU: 0x1265D, offset: 0x1265D, size: 0x8, addend: 0x0, symName: __ZNSt3__110__function6__baseIFvvEED0Ev, symObjAddr: 0x54D8, symBinAddr: 0x100005CD8, symSize: 0xC }
  - { offsetInCU: 0x12687, offset: 0x12687, size: 0x8, addend: 0x0, symName: '__ZNSt3__110__function12__alloc_funcIZ4mainE3$_1NS_9allocatorIS2_EEFvvEEC2B8ue170006EOS2_OS4_', symObjAddr: 0x54E4, symBinAddr: 0x100005CE4, symSize: 0x5C }
  - { offsetInCU: 0x126CD, offset: 0x126CD, size: 0x8, addend: 0x0, symName: '__ZNSt3__117__compressed_pairIZ4mainE3$_1NS_9allocatorIS1_EEEC1B8ue170006IJOS1_EJOS3_EEENS_21piecewise_construct_tENS_5tupleIJDpT_EEENS9_IJDpT0_EEE', symObjAddr: 0x5598, symBinAddr: 0x100005D98, symSize: 0x3C }
  - { offsetInCU: 0x12737, offset: 0x12737, size: 0x8, addend: 0x0, symName: '__ZNSt3__15tupleIJOZ4mainE3$_1EEC1B8ue170006IJS1_ELi0EEEDpOT_', symObjAddr: 0x55D4, symBinAddr: 0x100005DD4, symSize: 0x34 }
  - { offsetInCU: 0x12781, offset: 0x12781, size: 0x8, addend: 0x0, symName: '__ZNSt3__15tupleIJOZ4mainE3$_1EEC2B8ue170006IJS1_ELi0EEEDpOT_', symObjAddr: 0x5608, symBinAddr: 0x100005E08, symSize: 0x34 }
  - { offsetInCU: 0x127CB, offset: 0x127CB, size: 0x8, addend: 0x0, symName: '__ZNSt3__112__tuple_implINS_15__tuple_indicesIJLm0EEEEJOZ4mainE3$_1EEC1B8ue170006IJLm0EEJS4_EJEJEJS3_EEENS1_IJXspT_EEEENS_13__tuple_typesIJDpT0_EEENS1_IJXspT1_EEEENS8_IJDpT2_EEEDpOT3_', symObjAddr: 0x563C, symBinAddr: 0x100005E3C, symSize: 0x34 }
  - { offsetInCU: 0x12860, offset: 0x12860, size: 0x8, addend: 0x0, symName: '__ZNSt3__112__tuple_implINS_15__tuple_indicesIJLm0EEEEJOZ4mainE3$_1EEC2B8ue170006IJLm0EEJS4_EJEJEJS3_EEENS1_IJXspT_EEEENS_13__tuple_typesIJDpT0_EEENS1_IJXspT1_EEEENS8_IJDpT2_EEEDpOT3_', symObjAddr: 0x5670, symBinAddr: 0x100005E70, symSize: 0x34 }
  - { offsetInCU: 0x128F5, offset: 0x128F5, size: 0x8, addend: 0x0, symName: '__ZNSt3__112__tuple_leafILm0EOZ4mainE3$_1Lb0EEC2B8ue170006IS1_vEEOT_', symObjAddr: 0x56A4, symBinAddr: 0x100005EA4, symSize: 0x20 }
  - { offsetInCU: 0x12938, offset: 0x12938, size: 0x8, addend: 0x0, symName: '__ZNSt3__15tupleIJONS_9allocatorIZ4mainE3$_1EEEEC1B8ue170006IJS3_ELi0EEEDpOT_', symObjAddr: 0x56C4, symBinAddr: 0x100005EC4, symSize: 0x34 }
  - { offsetInCU: 0x12982, offset: 0x12982, size: 0x8, addend: 0x0, symName: '__ZNSt3__15tupleIJONS_9allocatorIZ4mainE3$_1EEEEC2B8ue170006IJS3_ELi0EEEDpOT_', symObjAddr: 0x56F8, symBinAddr: 0x100005EF8, symSize: 0x34 }
  - { offsetInCU: 0x129CC, offset: 0x129CC, size: 0x8, addend: 0x0, symName: '__ZNSt3__112__tuple_implINS_15__tuple_indicesIJLm0EEEEJONS_9allocatorIZ4mainE3$_1EEEEC1B8ue170006IJLm0EEJS6_EJEJEJS5_EEENS1_IJXspT_EEEENS_13__tuple_typesIJDpT0_EEENS1_IJXspT1_EEEENSA_IJDpT2_EEEDpOT3_', symObjAddr: 0x572C, symBinAddr: 0x100005F2C, symSize: 0x34 }
  - { offsetInCU: 0x12A61, offset: 0x12A61, size: 0x8, addend: 0x0, symName: '__ZNSt3__112__tuple_implINS_15__tuple_indicesIJLm0EEEEJONS_9allocatorIZ4mainE3$_1EEEEC2B8ue170006IJLm0EEJS6_EJEJEJS5_EEENS1_IJXspT_EEEENS_13__tuple_typesIJDpT0_EEENS1_IJXspT1_EEEENSA_IJDpT2_EEEDpOT3_', symObjAddr: 0x5760, symBinAddr: 0x100005F60, symSize: 0x34 }
  - { offsetInCU: 0x12AF6, offset: 0x12AF6, size: 0x8, addend: 0x0, symName: '__ZNSt3__112__tuple_leafILm0EONS_9allocatorIZ4mainE3$_1EELb0EEC2B8ue170006IS3_vEEOT_', symObjAddr: 0x5794, symBinAddr: 0x100005F94, symSize: 0x20 }
  - { offsetInCU: 0x12B39, offset: 0x12B39, size: 0x8, addend: 0x0, symName: '__ZNSt3__117__compressed_pairIZ4mainE3$_1NS_9allocatorIS1_EEEC2B8ue170006IJOS1_EJOS3_EEENS_21piecewise_construct_tENS_5tupleIJDpT_EEENS9_IJDpT0_EEE', symObjAddr: 0x57B4, symBinAddr: 0x100005FB4, symSize: 0x54 }
  - { offsetInCU: 0x12BA3, offset: 0x12BA3, size: 0x8, addend: 0x0, symName: '__ZNSt3__122__compressed_pair_elemIZ4mainE3$_1Li0ELb0EEC2B8ue170006IJOS1_EJLm0EEEENS_21piecewise_construct_tENS_5tupleIJDpT_EEENS_15__tuple_indicesIJXspT0_EEEE', symObjAddr: 0x5808, symBinAddr: 0x100006008, symSize: 0x44 }
  - { offsetInCU: 0x12C06, offset: 0x12C06, size: 0x8, addend: 0x0, symName: '__ZNSt3__122__compressed_pair_elemINS_9allocatorIZ4mainE3$_1EELi1ELb1EEC2B8ue170006IJOS3_EJLm0EEEENS_21piecewise_construct_tENS_5tupleIJDpT_EEENS_15__tuple_indicesIJXspT0_EEEE', symObjAddr: 0x584C, symBinAddr: 0x10000604C, symSize: 0x38 }
  - { offsetInCU: 0x12C69, offset: 0x12C69, size: 0x8, addend: 0x0, symName: '__ZNSt3__112__tuple_leafILm0EOZ4mainE3$_1Lb0EE3getB8ue170006Ev', symObjAddr: 0x58A8, symBinAddr: 0x1000060A8, symSize: 0x18 }
  - { offsetInCU: 0x12C8F, offset: 0x12C8F, size: 0x8, addend: 0x0, symName: '__ZNSt3__112__tuple_leafILm0EONS_9allocatorIZ4mainE3$_1EELb0EE3getB8ue170006Ev', symObjAddr: 0x58E4, symBinAddr: 0x1000060E4, symSize: 0x18 }
  - { offsetInCU: 0x12CB5, offset: 0x12CB5, size: 0x8, addend: 0x0, symName: '__ZNSt3__110__function6__funcIZ4mainE3$_1NS_9allocatorIS2_EEFvvEED2Ev', symObjAddr: 0x58FC, symBinAddr: 0x1000060FC, symSize: 0x2C }
  - { offsetInCU: 0x12CE2, offset: 0x12CE2, size: 0x8, addend: 0x0, symName: '__ZNKSt3__110__function12__alloc_funcIZ4mainE3$_1NS_9allocatorIS2_EEFvvEE15__get_allocatorB8ue170006Ev', symObjAddr: 0x5928, symBinAddr: 0x100006128, symSize: 0x24 }
  - { offsetInCU: 0x12D08, offset: 0x12D08, size: 0x8, addend: 0x0, symName: '__ZNSt3__19allocatorINS_10__function6__funcIZ4mainE3$_1NS0_IS3_EEFvvEEEE8allocateB8ue170006Em', symObjAddr: 0x594C, symBinAddr: 0x10000614C, symSize: 0x58 }
  - { offsetInCU: 0x12D4E, offset: 0x12D4E, size: 0x8, addend: 0x0, symName: '__ZNSt3__122__allocator_destructorINS_9allocatorINS_10__function6__funcIZ4mainE3$_1NS1_IS4_EEFvvEEEEEEC1B8ue170006ERS8_m', symObjAddr: 0x59A4, symBinAddr: 0x1000061A4, symSize: 0x3C }
  - { offsetInCU: 0x12E35, offset: 0x12E35, size: 0x8, addend: 0x0, symName: '__ZNSt3__110unique_ptrINS_10__function6__funcIZ4mainE3$_1NS_9allocatorIS3_EEFvvEEENS_22__allocator_destructorINS4_IS7_EEEEEC1B8ue170006ILb1EvEEPS7_NS_16__dependent_typeINS_27__unique_ptr_deleter_sfinaeISA_EEXT_EE20__good_rval_ref_typeE', symObjAddr: 0x59E0, symBinAddr: 0x1000061E0, symSize: 0x3C }
  - { offsetInCU: 0x12E86, offset: 0x12E86, size: 0x8, addend: 0x0, symName: '__ZNKSt3__110unique_ptrINS_10__function6__funcIZ4mainE3$_1NS_9allocatorIS3_EEFvvEEENS_22__allocator_destructorINS4_IS7_EEEEE3getB8ue170006Ev', symObjAddr: 0x5A1C, symBinAddr: 0x10000621C, symSize: 0x28 }
  - { offsetInCU: 0x12EAC, offset: 0x12EAC, size: 0x8, addend: 0x0, symName: '__ZNKSt3__110__function12__alloc_funcIZ4mainE3$_1NS_9allocatorIS2_EEFvvEE8__targetB8ue170006Ev', symObjAddr: 0x5A44, symBinAddr: 0x100006244, symSize: 0x24 }
  - { offsetInCU: 0x12ED2, offset: 0x12ED2, size: 0x8, addend: 0x0, symName: '__ZNSt3__110__function6__funcIZ4mainE3$_1NS_9allocatorIS2_EEFvvEEC1B8ue170006ERKS2_OS4_', symObjAddr: 0x5A68, symBinAddr: 0x100006268, symSize: 0x3C }
  - { offsetInCU: 0x12F1A, offset: 0x12F1A, size: 0x8, addend: 0x0, symName: '__ZNSt3__110unique_ptrINS_10__function6__funcIZ4mainE3$_1NS_9allocatorIS3_EEFvvEEENS_22__allocator_destructorINS4_IS7_EEEEE7releaseB8ue170006Ev', symObjAddr: 0x5AA4, symBinAddr: 0x1000062A4, symSize: 0x44 }
  - { offsetInCU: 0x12F4F, offset: 0x12F4F, size: 0x8, addend: 0x0, symName: '__ZNSt3__110unique_ptrINS_10__function6__funcIZ4mainE3$_1NS_9allocatorIS3_EEFvvEEENS_22__allocator_destructorINS4_IS7_EEEEED1B8ue170006Ev', symObjAddr: 0x5AE8, symBinAddr: 0x1000062E8, symSize: 0x2C }
  - { offsetInCU: 0x12F79, offset: 0x12F79, size: 0x8, addend: 0x0, symName: '__ZNKSt3__117__compressed_pairIZ4mainE3$_1NS_9allocatorIS1_EEE6secondB8ue170006Ev', symObjAddr: 0x5B14, symBinAddr: 0x100006314, symSize: 0x24 }
  - { offsetInCU: 0x12F9F, offset: 0x12F9F, size: 0x8, addend: 0x0, symName: '__ZNKSt3__122__compressed_pair_elemINS_9allocatorIZ4mainE3$_1EELi1ELb1EE5__getB8ue170006Ev', symObjAddr: 0x5B38, symBinAddr: 0x100006338, symSize: 0x14 }
  - { offsetInCU: 0x12FD0, offset: 0x12FD0, size: 0x8, addend: 0x0, symName: '__ZNSt3__116allocator_traitsINS_9allocatorINS_10__function6__funcIZ4mainE3$_1NS1_IS4_EEFvvEEEEEE8max_sizeB8ue170006IS8_vEEmRKS8_', symObjAddr: 0x5B4C, symBinAddr: 0x10000634C, symSize: 0x24 }
  - { offsetInCU: 0x12FFE, offset: 0x12FFE, size: 0x8, addend: 0x0, symName: '__ZNKSt3__19allocatorINS_10__function6__funcIZ4mainE3$_1NS0_IS3_EEFvvEEEE8max_sizeB8ue170006Ev', symObjAddr: 0x5B70, symBinAddr: 0x100006370, symSize: 0x14 }
  - { offsetInCU: 0x13024, offset: 0x13024, size: 0x8, addend: 0x0, symName: '__ZNSt3__122__allocator_destructorINS_9allocatorINS_10__function6__funcIZ4mainE3$_1NS1_IS4_EEFvvEEEEEEC2B8ue170006ERS8_m', symObjAddr: 0x5B84, symBinAddr: 0x100006384, symSize: 0x2C }
  - { offsetInCU: 0x1306A, offset: 0x1306A, size: 0x8, addend: 0x0, symName: '__ZNSt3__110unique_ptrINS_10__function6__funcIZ4mainE3$_1NS_9allocatorIS3_EEFvvEEENS_22__allocator_destructorINS4_IS7_EEEEEC2B8ue170006ILb1EvEEPS7_NS_16__dependent_typeINS_27__unique_ptr_deleter_sfinaeISA_EEXT_EE20__good_rval_ref_typeE', symObjAddr: 0x5BB0, symBinAddr: 0x1000063B0, symSize: 0x48 }
  - { offsetInCU: 0x130BB, offset: 0x130BB, size: 0x8, addend: 0x0, symName: '__ZNSt3__117__compressed_pairIPNS_10__function6__funcIZ4mainE3$_1NS_9allocatorIS3_EEFvvEEENS_22__allocator_destructorINS4_IS7_EEEEEC1B8ue170006IRS8_SB_EEOT_OT0_', symObjAddr: 0x5BF8, symBinAddr: 0x1000063F8, symSize: 0x3C }
  - { offsetInCU: 0x13113, offset: 0x13113, size: 0x8, addend: 0x0, symName: '__ZNSt3__117__compressed_pairIPNS_10__function6__funcIZ4mainE3$_1NS_9allocatorIS3_EEFvvEEENS_22__allocator_destructorINS4_IS7_EEEEEC2B8ue170006IRS8_SB_EEOT_OT0_', symObjAddr: 0x5C34, symBinAddr: 0x100006434, symSize: 0x48 }
  - { offsetInCU: 0x1316B, offset: 0x1316B, size: 0x8, addend: 0x0, symName: '__ZNSt3__122__compressed_pair_elemIPNS_10__function6__funcIZ4mainE3$_1NS_9allocatorIS3_EEFvvEEELi0ELb0EEC2B8ue170006IRS8_vEEOT_', symObjAddr: 0x5C7C, symBinAddr: 0x10000647C, symSize: 0x24 }
  - { offsetInCU: 0x131AD, offset: 0x131AD, size: 0x8, addend: 0x0, symName: '__ZNSt3__122__compressed_pair_elemINS_22__allocator_destructorINS_9allocatorINS_10__function6__funcIZ4mainE3$_1NS2_IS5_EEFvvEEEEEEELi1ELb0EEC2B8ue170006ISA_vEEOT_', symObjAddr: 0x5CA0, symBinAddr: 0x1000064A0, symSize: 0x24 }
  - { offsetInCU: 0x131EF, offset: 0x131EF, size: 0x8, addend: 0x0, symName: '__ZNKSt3__117__compressed_pairIPNS_10__function6__funcIZ4mainE3$_1NS_9allocatorIS3_EEFvvEEENS_22__allocator_destructorINS4_IS7_EEEEE5firstB8ue170006Ev', symObjAddr: 0x5CC4, symBinAddr: 0x1000064C4, symSize: 0x24 }
  - { offsetInCU: 0x13215, offset: 0x13215, size: 0x8, addend: 0x0, symName: '__ZNKSt3__122__compressed_pair_elemIPNS_10__function6__funcIZ4mainE3$_1NS_9allocatorIS3_EEFvvEEELi0ELb0EE5__getB8ue170006Ev', symObjAddr: 0x5CE8, symBinAddr: 0x1000064E8, symSize: 0x14 }
  - { offsetInCU: 0x1323B, offset: 0x1323B, size: 0x8, addend: 0x0, symName: '__ZNKSt3__117__compressed_pairIZ4mainE3$_1NS_9allocatorIS1_EEE5firstB8ue170006Ev', symObjAddr: 0x5CFC, symBinAddr: 0x1000064FC, symSize: 0x24 }
  - { offsetInCU: 0x13261, offset: 0x13261, size: 0x8, addend: 0x0, symName: '__ZNKSt3__122__compressed_pair_elemIZ4mainE3$_1Li0ELb0EE5__getB8ue170006Ev', symObjAddr: 0x5D20, symBinAddr: 0x100006520, symSize: 0x14 }
  - { offsetInCU: 0x13287, offset: 0x13287, size: 0x8, addend: 0x0, symName: '__ZNSt3__110__function6__funcIZ4mainE3$_1NS_9allocatorIS2_EEFvvEEC2B8ue170006ERKS2_OS4_', symObjAddr: 0x5D34, symBinAddr: 0x100006534, symSize: 0x88 }
  - { offsetInCU: 0x132CF, offset: 0x132CF, size: 0x8, addend: 0x0, symName: '__ZNSt3__110__function12__alloc_funcIZ4mainE3$_1NS_9allocatorIS2_EEFvvEEC1B8ue170006ERKS2_OS4_', symObjAddr: 0x5DBC, symBinAddr: 0x1000065BC, symSize: 0x3C }
  - { offsetInCU: 0x13315, offset: 0x13315, size: 0x8, addend: 0x0, symName: '__ZNSt3__110__function12__alloc_funcIZ4mainE3$_1NS_9allocatorIS2_EEFvvEEC2B8ue170006ERKS2_OS4_', symObjAddr: 0x5DF8, symBinAddr: 0x1000065F8, symSize: 0x5C }
  - { offsetInCU: 0x1335B, offset: 0x1335B, size: 0x8, addend: 0x0, symName: '__ZNSt3__117__compressed_pairIZ4mainE3$_1NS_9allocatorIS1_EEEC1B8ue170006IJRKS1_EJOS3_EEENS_21piecewise_construct_tENS_5tupleIJDpT_EEENSA_IJDpT0_EEE', symObjAddr: 0x5E80, symBinAddr: 0x100006680, symSize: 0x3C }
  - { offsetInCU: 0x133C5, offset: 0x133C5, size: 0x8, addend: 0x0, symName: '__ZNSt3__15tupleIJRKZ4mainE3$_1EEC1B8ue170006INS_4_AndELi0EEES3_', symObjAddr: 0x5EBC, symBinAddr: 0x1000066BC, symSize: 0x34 }
  - { offsetInCU: 0x1340D, offset: 0x1340D, size: 0x8, addend: 0x0, symName: '__ZNSt3__15tupleIJRKZ4mainE3$_1EEC2B8ue170006INS_4_AndELi0EEES3_', symObjAddr: 0x5EF0, symBinAddr: 0x1000066F0, symSize: 0x34 }
  - { offsetInCU: 0x13455, offset: 0x13455, size: 0x8, addend: 0x0, symName: '__ZNSt3__112__tuple_implINS_15__tuple_indicesIJLm0EEEEJRKZ4mainE3$_1EEC1B8ue170006IJLm0EEJS5_EJEJEJS5_EEENS1_IJXspT_EEEENS_13__tuple_typesIJDpT0_EEENS1_IJXspT1_EEEENS9_IJDpT2_EEEDpOT3_', symObjAddr: 0x5F24, symBinAddr: 0x100006724, symSize: 0x34 }
  - { offsetInCU: 0x134EA, offset: 0x134EA, size: 0x8, addend: 0x0, symName: '__ZNSt3__112__tuple_implINS_15__tuple_indicesIJLm0EEEEJRKZ4mainE3$_1EEC2B8ue170006IJLm0EEJS5_EJEJEJS5_EEENS1_IJXspT_EEEENS_13__tuple_typesIJDpT0_EEENS1_IJXspT1_EEEENS9_IJDpT2_EEEDpOT3_', symObjAddr: 0x5F58, symBinAddr: 0x100006758, symSize: 0x34 }
  - { offsetInCU: 0x1357F, offset: 0x1357F, size: 0x8, addend: 0x0, symName: '__ZNSt3__112__tuple_leafILm0ERKZ4mainE3$_1Lb0EEC2B8ue170006IS3_vEEOT_', symObjAddr: 0x5F8C, symBinAddr: 0x10000678C, symSize: 0x20 }
  - { offsetInCU: 0x135C2, offset: 0x135C2, size: 0x8, addend: 0x0, symName: '__ZNSt3__117__compressed_pairIZ4mainE3$_1NS_9allocatorIS1_EEEC2B8ue170006IJRKS1_EJOS3_EEENS_21piecewise_construct_tENS_5tupleIJDpT_EEENSA_IJDpT0_EEE', symObjAddr: 0x5FAC, symBinAddr: 0x1000067AC, symSize: 0x54 }
  - { offsetInCU: 0x1362C, offset: 0x1362C, size: 0x8, addend: 0x0, symName: '__ZNSt3__122__compressed_pair_elemIZ4mainE3$_1Li0ELb0EEC2B8ue170006IJRKS1_EJLm0EEEENS_21piecewise_construct_tENS_5tupleIJDpT_EEENS_15__tuple_indicesIJXspT0_EEEE', symObjAddr: 0x6000, symBinAddr: 0x100006800, symSize: 0x44 }
  - { offsetInCU: 0x1368F, offset: 0x1368F, size: 0x8, addend: 0x0, symName: '__ZNSt3__112__tuple_leafILm0ERKZ4mainE3$_1Lb0EE3getB8ue170006Ev', symObjAddr: 0x6068, symBinAddr: 0x100006868, symSize: 0x18 }
  - { offsetInCU: 0x136B5, offset: 0x136B5, size: 0x8, addend: 0x0, symName: '__ZNSt3__117__compressed_pairIPNS_10__function6__funcIZ4mainE3$_1NS_9allocatorIS3_EEFvvEEENS_22__allocator_destructorINS4_IS7_EEEEE5firstB8ue170006Ev', symObjAddr: 0x6080, symBinAddr: 0x100006880, symSize: 0x24 }
  - { offsetInCU: 0x136DB, offset: 0x136DB, size: 0x8, addend: 0x0, symName: '__ZNSt3__122__compressed_pair_elemIPNS_10__function6__funcIZ4mainE3$_1NS_9allocatorIS3_EEFvvEEELi0ELb0EE5__getB8ue170006Ev', symObjAddr: 0x60A4, symBinAddr: 0x1000068A4, symSize: 0x14 }
  - { offsetInCU: 0x13701, offset: 0x13701, size: 0x8, addend: 0x0, symName: '__ZNSt3__110unique_ptrINS_10__function6__funcIZ4mainE3$_1NS_9allocatorIS3_EEFvvEEENS_22__allocator_destructorINS4_IS7_EEEEED2B8ue170006Ev', symObjAddr: 0x60B8, symBinAddr: 0x1000068B8, symSize: 0x30 }
  - { offsetInCU: 0x1372B, offset: 0x1372B, size: 0x8, addend: 0x0, symName: '__ZNSt3__110unique_ptrINS_10__function6__funcIZ4mainE3$_1NS_9allocatorIS3_EEFvvEEENS_22__allocator_destructorINS4_IS7_EEEEE5resetB8ue170006EPS7_', symObjAddr: 0x60E8, symBinAddr: 0x1000068E8, symSize: 0x78 }
  - { offsetInCU: 0x1376F, offset: 0x1376F, size: 0x8, addend: 0x0, symName: '__ZNSt3__117__compressed_pairIPNS_10__function6__funcIZ4mainE3$_1NS_9allocatorIS3_EEFvvEEENS_22__allocator_destructorINS4_IS7_EEEEE6secondB8ue170006Ev', symObjAddr: 0x6160, symBinAddr: 0x100006960, symSize: 0x28 }
  - { offsetInCU: 0x13795, offset: 0x13795, size: 0x8, addend: 0x0, symName: '__ZNSt3__122__allocator_destructorINS_9allocatorINS_10__function6__funcIZ4mainE3$_1NS1_IS4_EEFvvEEEEEEclB8ue170006EPS7_', symObjAddr: 0x6188, symBinAddr: 0x100006988, symSize: 0x34 }
  - { offsetInCU: 0x137C9, offset: 0x137C9, size: 0x8, addend: 0x0, symName: '__ZNSt3__122__compressed_pair_elemINS_22__allocator_destructorINS_9allocatorINS_10__function6__funcIZ4mainE3$_1NS2_IS5_EEFvvEEEEEEELi1ELb0EE5__getB8ue170006Ev', symObjAddr: 0x61BC, symBinAddr: 0x1000069BC, symSize: 0x14 }
  - { offsetInCU: 0x137EF, offset: 0x137EF, size: 0x8, addend: 0x0, symName: '__ZNSt3__116allocator_traitsINS_9allocatorINS_10__function6__funcIZ4mainE3$_1NS1_IS4_EEFvvEEEEEE10deallocateB8ue170006ERS8_PS7_m', symObjAddr: 0x61D0, symBinAddr: 0x1000069D0, symSize: 0x34 }
  - { offsetInCU: 0x13831, offset: 0x13831, size: 0x8, addend: 0x0, symName: '__ZNSt3__19allocatorINS_10__function6__funcIZ4mainE3$_1NS0_IS3_EEFvvEEEE10deallocateB8ue170006EPS6_m', symObjAddr: 0x6204, symBinAddr: 0x100006A04, symSize: 0x40 }
  - { offsetInCU: 0x13873, offset: 0x13873, size: 0x8, addend: 0x0, symName: '__ZNSt3__110__function6__funcIZ4mainE3$_1NS_9allocatorIS2_EEFvvEEC1B8ue170006ERKS2_RKS4_', symObjAddr: 0x6244, symBinAddr: 0x100006A44, symSize: 0x3C }
  - { offsetInCU: 0x138BB, offset: 0x138BB, size: 0x8, addend: 0x0, symName: '__ZNSt3__110__function6__funcIZ4mainE3$_1NS_9allocatorIS2_EEFvvEEC2B8ue170006ERKS2_RKS4_', symObjAddr: 0x6280, symBinAddr: 0x100006A80, symSize: 0x88 }
  - { offsetInCU: 0x13903, offset: 0x13903, size: 0x8, addend: 0x0, symName: '__ZNSt3__110__function12__alloc_funcIZ4mainE3$_1NS_9allocatorIS2_EEFvvEEC1B8ue170006ERKS2_RKS4_', symObjAddr: 0x6308, symBinAddr: 0x100006B08, symSize: 0x3C }
  - { offsetInCU: 0x13949, offset: 0x13949, size: 0x8, addend: 0x0, symName: '__ZNSt3__110__function12__alloc_funcIZ4mainE3$_1NS_9allocatorIS2_EEFvvEEC2B8ue170006ERKS2_RKS4_', symObjAddr: 0x6344, symBinAddr: 0x100006B44, symSize: 0x5C }
  - { offsetInCU: 0x1398F, offset: 0x1398F, size: 0x8, addend: 0x0, symName: '__ZNSt3__117__compressed_pairIZ4mainE3$_1NS_9allocatorIS1_EEEC1B8ue170006IJRKS1_EJRKS3_EEENS_21piecewise_construct_tENS_5tupleIJDpT_EEENSB_IJDpT0_EEE', symObjAddr: 0x63CC, symBinAddr: 0x100006BCC, symSize: 0x3C }
  - { offsetInCU: 0x139F9, offset: 0x139F9, size: 0x8, addend: 0x0, symName: '__ZNSt3__15tupleIJRKNS_9allocatorIZ4mainE3$_1EEEEC1B8ue170006INS_4_AndELi0EEES5_', symObjAddr: 0x6408, symBinAddr: 0x100006C08, symSize: 0x34 }
  - { offsetInCU: 0x13A41, offset: 0x13A41, size: 0x8, addend: 0x0, symName: '__ZNSt3__15tupleIJRKNS_9allocatorIZ4mainE3$_1EEEEC2B8ue170006INS_4_AndELi0EEES5_', symObjAddr: 0x643C, symBinAddr: 0x100006C3C, symSize: 0x34 }
  - { offsetInCU: 0x13A89, offset: 0x13A89, size: 0x8, addend: 0x0, symName: '__ZNSt3__112__tuple_implINS_15__tuple_indicesIJLm0EEEEJRKNS_9allocatorIZ4mainE3$_1EEEEC1B8ue170006IJLm0EEJS7_EJEJEJS7_EEENS1_IJXspT_EEEENS_13__tuple_typesIJDpT0_EEENS1_IJXspT1_EEEENSB_IJDpT2_EEEDpOT3_', symObjAddr: 0x6470, symBinAddr: 0x100006C70, symSize: 0x34 }
  - { offsetInCU: 0x13B1E, offset: 0x13B1E, size: 0x8, addend: 0x0, symName: '__ZNSt3__112__tuple_implINS_15__tuple_indicesIJLm0EEEEJRKNS_9allocatorIZ4mainE3$_1EEEEC2B8ue170006IJLm0EEJS7_EJEJEJS7_EEENS1_IJXspT_EEEENS_13__tuple_typesIJDpT0_EEENS1_IJXspT1_EEEENSB_IJDpT2_EEEDpOT3_', symObjAddr: 0x64A4, symBinAddr: 0x100006CA4, symSize: 0x34 }
  - { offsetInCU: 0x13BB3, offset: 0x13BB3, size: 0x8, addend: 0x0, symName: '__ZNSt3__112__tuple_leafILm0ERKNS_9allocatorIZ4mainE3$_1EELb0EEC2B8ue170006IS5_vEEOT_', symObjAddr: 0x64D8, symBinAddr: 0x100006CD8, symSize: 0x20 }
  - { offsetInCU: 0x13BF6, offset: 0x13BF6, size: 0x8, addend: 0x0, symName: '__ZNSt3__117__compressed_pairIZ4mainE3$_1NS_9allocatorIS1_EEEC2B8ue170006IJRKS1_EJRKS3_EEENS_21piecewise_construct_tENS_5tupleIJDpT_EEENSB_IJDpT0_EEE', symObjAddr: 0x64F8, symBinAddr: 0x100006CF8, symSize: 0x54 }
  - { offsetInCU: 0x13C60, offset: 0x13C60, size: 0x8, addend: 0x0, symName: '__ZNSt3__122__compressed_pair_elemINS_9allocatorIZ4mainE3$_1EELi1ELb1EEC2B8ue170006IJRKS3_EJLm0EEEENS_21piecewise_construct_tENS_5tupleIJDpT_EEENS_15__tuple_indicesIJXspT0_EEEE', symObjAddr: 0x654C, symBinAddr: 0x100006D4C, symSize: 0x38 }
  - { offsetInCU: 0x13CC3, offset: 0x13CC3, size: 0x8, addend: 0x0, symName: '__ZNSt3__112__tuple_leafILm0ERKNS_9allocatorIZ4mainE3$_1EELb0EE3getB8ue170006Ev', symObjAddr: 0x65A8, symBinAddr: 0x100006DA8, symSize: 0x18 }
  - { offsetInCU: 0x13CE9, offset: 0x13CE9, size: 0x8, addend: 0x0, symName: '__ZNSt3__110__function12__alloc_funcIZ4mainE3$_1NS_9allocatorIS2_EEFvvEE7destroyB8ue170006Ev', symObjAddr: 0x65C0, symBinAddr: 0x100006DC0, symSize: 0x10 }
  - { offsetInCU: 0x13D0F, offset: 0x13D0F, size: 0x8, addend: 0x0, symName: '__ZNSt3__110__function12__alloc_funcIZ4mainE3$_1NS_9allocatorIS2_EEFvvEEclB8ue170006Ev', symObjAddr: 0x65D0, symBinAddr: 0x100006DD0, symSize: 0x28 }
  - { offsetInCU: 0x13D35, offset: 0x13D35, size: 0x8, addend: 0x0, symName: '__ZNSt3__128__invoke_void_return_wrapperIvLb1EE6__callB8ue170006IJRZ4mainE3$_1EEEvDpOT_', symObjAddr: 0x65F8, symBinAddr: 0x100006DF8, symSize: 0x24 }
  - { offsetInCU: 0x13D64, offset: 0x13D64, size: 0x8, addend: 0x0, symName: '__ZNSt3__117__compressed_pairIZ4mainE3$_1NS_9allocatorIS1_EEE5firstB8ue170006Ev', symObjAddr: 0x661C, symBinAddr: 0x100006E1C, symSize: 0x24 }
  - { offsetInCU: 0x13D90, offset: 0x13D90, size: 0x8, addend: 0x0, symName: '__ZZ4mainENK3$_1clEv', symObjAddr: 0x6664, symBinAddr: 0x100006E64, symSize: 0x3C }
  - { offsetInCU: 0x13DBA, offset: 0x13DBA, size: 0x8, addend: 0x0, symName: '__ZNSt3__122__compressed_pair_elemIZ4mainE3$_1Li0ELb0EE5__getB8ue170006Ev', symObjAddr: 0x66A0, symBinAddr: 0x100006EA0, symSize: 0x14 }
  - { offsetInCU: 0x13E16, offset: 0x13E16, size: 0x8, addend: 0x0, symName: __ZNKSt9type_infoeqB8ue170006ERKS_, symObjAddr: 0x66B4, symBinAddr: 0x100006EB4, symSize: 0xDC }
  - { offsetInCU: 0x13EB4, offset: 0x13EB4, size: 0x8, addend: 0x0, symName: __ZNSt27__type_info_implementations30__non_unique_arm_rtti_bit_impl21__is_type_name_uniqueB8ue170006Em, symObjAddr: 0x6790, symBinAddr: 0x100006F90, symSize: 0x20 }
  - { offsetInCU: 0x13ED8, offset: 0x13ED8, size: 0x8, addend: 0x0, symName: __ZNSt3__18functionIFvvEED2Ev, symObjAddr: 0x67B0, symBinAddr: 0x100006FB0, symSize: 0x2C }
  - { offsetInCU: 0x13F04, offset: 0x13F04, size: 0x8, addend: 0x0, symName: __ZNSt3__110__function12__value_funcIFvvEED1B8ue170006Ev, symObjAddr: 0x67DC, symBinAddr: 0x100006FDC, symSize: 0x2C }
  - { offsetInCU: 0x13F2E, offset: 0x13F2E, size: 0x8, addend: 0x0, symName: __ZNSt3__110__function12__value_funcIFvvEED2B8ue170006Ev, symObjAddr: 0x6808, symBinAddr: 0x100007008, symSize: 0x90 }
  - { offsetInCU: 0x13F58, offset: 0x13F58, size: 0x8, addend: 0x0, symName: __ZNSt3__16vectorINS_8functionIFvvEEENS_9allocatorIS3_EEE11__make_iterB8ue170006EPS3_, symObjAddr: 0x6898, symBinAddr: 0x100007098, symSize: 0x30 }
  - { offsetInCU: 0x13F8D, offset: 0x13F8D, size: 0x8, addend: 0x0, symName: __ZNSt3__111__wrap_iterIPNS_8functionIFvvEEEEC1B8ue170006ES4_, symObjAddr: 0x68C8, symBinAddr: 0x1000070C8, symSize: 0x34 }
  - { offsetInCU: 0x13FC5, offset: 0x13FC5, size: 0x8, addend: 0x0, symName: __ZNSt3__111__wrap_iterIPNS_8functionIFvvEEEEC2B8ue170006ES4_, symObjAddr: 0x68FC, symBinAddr: 0x1000070FC, symSize: 0x20 }
  - { offsetInCU: 0x13FFD, offset: 0x13FFD, size: 0x8, addend: 0x0, symName: __ZNSt3__18functionIFvvEEC2ERKS2_, symObjAddr: 0x691C, symBinAddr: 0x10000711C, symSize: 0x34 }
  - { offsetInCU: 0x14038, offset: 0x14038, size: 0x8, addend: 0x0, symName: __ZNSt3__110__function12__value_funcIFvvEEC1B8ue170006ERKS3_, symObjAddr: 0x6950, symBinAddr: 0x100007150, symSize: 0x34 }
  - { offsetInCU: 0x14071, offset: 0x14071, size: 0x8, addend: 0x0, symName: __ZNSt3__110__function12__value_funcIFvvEEC2B8ue170006ERKS3_, symObjAddr: 0x6984, symBinAddr: 0x100007184, symSize: 0xC0 }
  - { offsetInCU: 0x140AA, offset: 0x140AA, size: 0x8, addend: 0x0, symName: __ZNKSt3__110__function12__value_funcIFvvEEclB8ue170006Ev, symObjAddr: 0x6A44, symBinAddr: 0x100007244, symSize: 0x50 }
  - { offsetInCU: 0x140D6, offset: 0x140D6, size: 0x8, addend: 0x0, symName: __ZNSt3__117bad_function_callC1Ev, symObjAddr: 0x6ACC, symBinAddr: 0x1000072CC, symSize: 0x2C }
  - { offsetInCU: 0x14102, offset: 0x14102, size: 0x8, addend: 0x0, symName: __ZNSt3__117bad_function_callD1Ev, symObjAddr: 0x6AF8, symBinAddr: 0x1000072F8, symSize: 0x2C }
  - { offsetInCU: 0x1412C, offset: 0x1412C, size: 0x8, addend: 0x0, symName: __ZNSt3__117bad_function_callC2Ev, symObjAddr: 0x6B24, symBinAddr: 0x100007324, symSize: 0x44 }
  - { offsetInCU: 0x14158, offset: 0x14158, size: 0x8, addend: 0x0, symName: __ZNSt9exceptionC2B8ue170006Ev, symObjAddr: 0x6B68, symBinAddr: 0x100007368, symSize: 0x24 }
  - { offsetInCU: 0x14182, offset: 0x14182, size: 0x8, addend: 0x0, symName: __ZNSt3__117bad_function_callD0Ev, symObjAddr: 0x6B8C, symBinAddr: 0x10000738C, symSize: 0x30 }
  - { offsetInCU: 0x141AC, offset: 0x141AC, size: 0x8, addend: 0x0, symName: __ZNSt3__117bad_function_callD2Ev, symObjAddr: 0x6BBC, symBinAddr: 0x1000073BC, symSize: 0x2C }
  - { offsetInCU: 0x141E1, offset: 0x141E1, size: 0x8, addend: 0x0, symName: '__ZZ4mainENK3$_2clEi', symObjAddr: 0x6BE8, symBinAddr: 0x1000073E8, symSize: 0x24 }
  - { offsetInCU: 0x14224, offset: 0x14224, size: 0x8, addend: 0x0, symName: __ZNKSt3__14plusIiEclB8ue170006ERKiS3_, symObjAddr: 0x6C0C, symBinAddr: 0x10000740C, symSize: 0x2C }
  - { offsetInCU: 0x14271, offset: 0x14271, size: 0x8, addend: 0x0, symName: '__ZZ4mainENK3$_3clEii', symObjAddr: 0x6C38, symBinAddr: 0x100007438, symSize: 0x34 }
...
